(dp0
S'pardon'
p1
I1
sS'foul'
p2
I5
sS'four'
p3
I11
sS'betch'
p4
I2
sS'protest'
p5
I1
sS'scheider'
p6
I1
sS'woody'
p7
I1
sS'mogwa'
p8
I1
sS'captain'
p9
I4
sS'schmuck'
p10
I1
sS'accus'
p11
I1
sVbuddy
p12
I6
sS'insign'
p13
I1
sS'wizardry'
p14
I1
sS'1939-'
p15
I1
sS'aut'
p16
I1
sS'swar'
p17
I1
sS'lord'
p18
I9
sS'sorry'
p19
I60
sS'digit'
p20
I3
sS'kudo'
p21
I2
sS'appal'
p22
I6
sS'void'
p23
I5
sS'voic'
p24
I13
sS'smack'
p25
I4
sS'fantas'
p26
I2
sS'delt'
p27
I1
sS'delv'
p28
I1
sS'affect'
p29
I4
sS'low-budget'
p30
I5
sS'low-key'
p31
I2
sS'screaming'
p32
I6
sS'shawshank'
p33
I1
sS'vast'
p34
I2
sS'disturb'
p35
I14
sS'akash'
p36
I1
sS'dern'
p37
I1
sS'haawwww'
p38
I1
sS'upd'
p39
I3
sS'upb'
p40
I2
sS'oooo'
p41
I1
sS'it-'
p42
I4
sS'vomit-pan'
p43
I1
sS'bacon'
p44
I7
sS'budget'
p45
I17
sS'second'
p46
I48
sS'superscop'
p47
I1
sS'kidnap'
p48
I3
sS'neo'
p49
I5
sVnel
p50
I2
sS'nej'
p51
I3
sVbooby
p52
I1
sS'wreck'
p53
I6
sS'ruthless'
p54
I1
sS'neg'
p55
I16
sS'nee'
p56
I94
sS'neb'
p57
I1
sS'athelet'
p58
I1
sS'nev'
p59
I179
sS'new'
p60
I63
sS'net'
p61
I1
sS'tuturro'
p62
I1
sS'kid-'
p63
I1
sS'med'
p64
I4
sS'meg'
p65
I6
sS'remem'
p66
I1
sS'hero'
p67
I27
sS'dahl'
p68
I3
sS'herm'
p69
I1
sVmem
p70
I7
sS'mel'
p71
I20
sS'men'
p72
I24
sS'anti-southern'
p73
I1
sS'drew'
p74
I10
sS'herd'
p75
I1
sS'met'
p76
I7
sS'munson'
p77
I1
sS'nanny'
p78
I1
sS'mer'
p79
I7
sS'cult'
p80
I14
sS'allll'
p81
I1
sS'100'
p82
I10
sS'cardboard'
p83
I2
sS'mey'
p84
I1
sS'herv'
p85
I1
sS'dork'
p86
I3
sS'dry'
p87
I7
sS'argh'
p88
I1
sS'goldf'
p89
I1
sS'gore-invented'
p90
I1
sS'seduc'
p91
I1
sS'k'
p92
I4
sVjamy
p93
I1
sS'songwrit'
p94
I1
sS'credit'
p95
I16
sS'permit'
p96
I1
sVgoldy
p97
I2
sS'pack'
p98
I6
sS'dre'
p99
I2
sS'kidm'
p100
I14
sS'volunt'
p101
I1
sS'campaign'
p102
I1
sS'thrown-together'
p103
I1
sS'latifah'
p104
I4
sS'brought'
p105
I18
sS'stern'
p106
I1
sS'goodfella'
p107
I1
sS'immit'
p108
I2
sS'unit'
p109
I8
sS'reguard'
p110
I1
sS'army'
p111
I6
sS'century'
p112
I3
sS'movie-'
p113
I1
sS'armo'
p114
I1
sS'calm'
p115
I1
sS'typo'
p116
I1
sS'recommend'
p117
I36
sS'calb'
p118
I1
sS'leaky'
p119
I1
sS'vaness'
p120
I1
sS'until'
p121
I29
sS'calf'
p122
I1
sS'intrest'
p123
I1
sS'cubby'
p124
I1
sS'f---er'
p125
I2
sS'excr'
p126
I4
sS'holy'
p127
I5
sS'fheit'
p128
I1
sS'warp'
p129
I3
sS'hurt'
p130
I13
sS'warn'
p131
I15
sS'glass'
p132
I5
sS'holm'
p133
I3
sS'warm'
p134
I5
sS'adult'
p135
I15
sS'hurl'
p136
I2
sS'90'
p137
I12
sS'ward'
p138
I1
sS'hold'
p139
I18
sS'95'
p140
I1
sS'spurlock'
p141
I3
sS'believable-'
p142
I1
sS'accid'
p143
I5
sS'room'
p144
I12
sS'quaid'
p145
I1
sS'probba'
p146
I1
sS'movieh'
p147
I1
sS'mid-life'
p148
I2
sS'roof'
p149
I3
sS'straddle'
p150
I1
sS'vow'
p151
I3
sS'unemot'
p152
I1
sS'akin'
p153
I1
sS'rework'
p154
I1
sS'root'
p155
I6
sS'"dirty"'
p156
I1
sS'wand'
p157
I1
sS'climax'
p158
I4
sS'laught'
p159
I4
sS'wann'
p160
I6
sS'neccess'
p161
I1
sS'charlton'
p162
I1
sS'pleeeeeeeeeas'
p163
I1
sS'definit'
p164
I17
sS'want'
p165
I177
sS'barrym'
p166
I5
sS'hoe'
p167
I3
sS'turn'
p168
I58
sS'hon'
p169
I2
sVsaty
p170
I1
sS'hol'
p171
I11
sS'hom'
p172
I25
sS'stroy'
p173
I2
sS'big-buck'
p174
I1
sS'silverston'
p175
I1
sS'hov'
p176
I1
sS'how'
p177
I199
sS'hot'
p178
I14
sS'hor'
p179
I128
sS'hop'
p180
I49
sS'bullwor'
p181
I1
sS'perspect'
p182
I4
sS'ectoplasm'
p183
I1
sS'polit'
p184
I26
sS'jezzzuz'
p185
I1
sS'egoc'
p186
I1
sVbeauty
p187
I24
sS'swing'
p188
I3
sS'ceratosa'
p189
I1
sS'wrong'
p190
I37
sS'barney'
p191
I1
sS'within"'
p192
I1
sS'turf'
p193
I1
sS'"live'
p194
I1
sS'turd'
p195
I6
sS'attempt'
p196
I43
sS'vicin'
p197
I1
sS'glow-in-the-dark'
p198
I1
sS'"tender'
p199
I1
sS'revolt'
p200
I2
sS'lumin'
p201
I1
sS'revolv'
p202
I7
sS'neglect'
p203
I1
sS'stimpy'
p204
I1
sS'wing'
p205
I3
sS'wind'
p206
I7
sS'wus'
p207
I1
sS'blind'
p208
I3
sS'mabey'
p209
I1
sS'bug-eyed'
p210
I1
sS'deck'
p211
I3
sS'wuz'
p212
I3
sS'govern'
p213
I4
sVvary
p214
I7
sS'murray'
p215
I6
sS'mumbl'
p216
I1
sS'oswald'
p217
I2
sS'wherein'
p218
I1
sS'fir'
p219
I5
sS'gentl'
p220
I1
sS'fiv'
p221
I13
sS'fit'
p222
I10
sS'fix'
p223
I5
sS'connel'
p224
I2
sS','
p225
I4451
sS'crew'
p226
I4
sS'fib'
p227
I1
sS'fif'
p228
I2
sS'fig'
p229
I27
sS'persist'
p230
I1
sS'schmidt'
p231
I1
sS'fin'
p232
I58
sS'inac'
p233
I1
sS'fil'
p234
I29
sS'fim'
p235
I2
sS'interrac'
p236
I1
sS'aston'
p237
I2
sS'anim'
p238
I38
sS'lambert'
p239
I1
sS'promin'
p240
I2
sS'therapy'
p241
I2
sVacceiv
p242
I12
sS'interrupt'
p243
I2
sS'over-rated'
p244
I9
sS'downright'
p245
I6
sS'meas'
p246
I2
sS'ruth'
p247
I1
sS'meat'
p248
I2
sVarrog
p249
I4
sS'strayed'
p250
I1
sS'lucy'
p251
I4
sS'foregin'
p252
I1
sS'grief'
p253
I3
sS'spotless'
p254
I1
sS'luca'
p255
I10
sS'showcas'
p256
I3
sS'went'
p257
I67
sS'oblig'
p258
I1
sS'meal'
p259
I3
sS'mean'
p260
I66
sS'whin'
p261
I3
sS'whil'
p262
I66
sS'klump'
p263
I1
sS'best-this'
p264
I1
sS'mediev'
p265
I2
sS'resum'
p266
I1
sS'enorm'
p267
I2
sVcarry
p268
I6
sS'taught'
p269
I2
sS'over-use'
p270
I1
sS'forgot'
p271
I9
sS'navy'
p272
I2
sS'scum'
p273
I1
sS'whit'
p274
I38
sS'whip'
p275
I2
sS'incomprehens'
p276
I2
sS'contend'
p277
I1
sS'chutzpah'
p278
I1
sS'cinem'
p279
I20
sS'homicid'
p280
I1
sS'"national'
p281
I1
sS'protray'
p282
I1
sVminisery
p283
I1
sS'mason'
p284
I1
sS're'
p285
I55
sS'bamb'
p286
I1
sS'adapt'
p287
I5
sS'smi'
p288
I16
sS'rc'
p289
I2
sS'grodin'
p290
I2
sS'favo'
p291
I3
sS'tybalt'
p292
I1
sVcutesy
p293
I1
sS'threatened'
p294
I1
sS'infin'
p295
I1
sS'knif'
p296
I1
sS'beatty'
p297
I1
sS'redempt'
p298
I3
sS'inacc'
p299
I8
sS'hollyood'
p300
I1
sS'mistress'
p301
I1
sS'9-11'
p302
I1
sS'15th-century'
p303
I1
sS'lliam'
p304
I1
sS'thwe'
p305
I1
sVlouy
p306
I1
sS'sceen'
p307
I2
sS'atl'
p308
I1
sS'lout'
p309
I1
sS'ath'
p310
I2
sS'isn'
p311
I73
sS'kingdom'
p312
I1
sS'bankrol'
p313
I2
sVconfus
p314
I27
sS'stewart'
p315
I1
sS'storylin'
p316
I47
sS'playwright'
p317
I1
sS'twenty-two'
p318
I1
sS'sucicid'
p319
I1
sS'basketbal'
p320
I4
sS'angelin'
p321
I9
sS'hoop'
p322
I1
sS'inflam'
p323
I2
sS'wast'
p324
I228
sS'hoot'
p325
I1
sS'reeeeaa'
p326
I1
sS'hook'
p327
I3
sS'hooh'
p328
I1
sS'wasn'
p329
I83
sS'gradu'
p330
I5
sS'hoof'
p331
I1
sS'hood'
p332
I1
sS'auto-cue'
p333
I1
sS'sometim'
p334
I7
sS'hori'
p335
I1
sS'starfleet'
p336
I1
sS'brainwash'
p337
I3
sS'hollywood'
p338
I66
sS'oldm'
p339
I3
sS'backst'
p340
I1
sVobnoxy
p341
I14
sS'escort'
p342
I1
sS'voight'
p343
I2
sS'trippy'
p344
I1
sS'enjot'
p345
I1
sS'dign'
p346
I1
sS'motionless'
p347
I1
sS'bringin'
p348
I1
sS'trippl'
p349
I1
sS'crawl'
p350
I3
sS'symptom'
p351
I1
sS'lamborghin'
p352
I1
sS'trek'
p353
I26
sS'benea'
p354
I4
sS'affront'
p355
I1
sS'coward'
p356
I1
sS'eleg'
p357
I1
sS'hors'
p358
I6
sS'windowdress'
p359
I1
sS'project'
p360
I9
sS'unint'
p361
I4
sS'street'
p362
I8
sS'hayd'
p363
I1
sS'trep'
p364
I1
sS'acclaim'
p365
I6
sS'out-act'
p366
I1
sS'seep'
p367
I1
sS'boston'
p368
I3
sS'modern'
p369
I23
sS'mind'
p370
I41
sS'synopt'
p371
I1
sS'all-time'
p372
I1
sS'corny'
p373
I19
sS'seen'
p374
I232
sS'seem'
p375
I113
sS'churn'
p376
I6
sS'seek'
p377
I6
sS'gurril'
p378
I1
sS'der'
p379
I1
sS'person'
p380
I67
sS'thornton'
p381
I2
sS'power-hungry'
p382
I1
sS'unrehears'
p383
I1
sS'from-says'
p384
I1
sS'ever-gleeful'
p385
I1
sS'possibly-imbred'
p386
I1
sS'dogvil'
p387
I12
sS'digust'
p388
I1
sS'strobe'
p389
I1
sS'heart--and'
p390
I1
sS'farenheight'
p391
I1
sS'lion'
p392
I4
sS'thrilled'
p393
I1
sS'object'
p394
I10
sS'marin'
p395
I1
sS'prpackaged'
p396
I1
sS'mouth'
p397
I2
sVamovy
p398
I1
sS'butl'
p399
I1
sS'typ'
p400
I48
sS'tyr'
p401
I1
sS'heartstop'
p402
I1
sS'tradit'
p403
I2
sS'b-rated'
p404
I2
sS'pinoccio'
p405
I1
sS'"porky'
p406
I1
sS'don'
p407
I296
sS'doo'
p408
I5
sS'dol'
p409
I7
sS'thrusted'
p410
I1
sS'unpleas'
p411
I4
sS'alarm'
p412
I1
sS'camp'
p413
I8
sS'twenty-something'
p414
I1
sS'dog'
p415
I32
sS'hospit'
p416
I3
sS'doz'
p417
I6
sS'digress'
p418
I1
sS'hair-cut'
p419
I1
sS'howl'
p420
I1
sS'dos'
p421
I1
sS'dop'
p422
I2
sS'dov'
p423
I1
sS'+'
p424
I7
sS'marvel'
p425
I5
sS'jews_white_slavery'
p426
I1
sS'asid'
p427
I16
sS'bomb'
p428
I22
sS'one-dimensional'
p429
I4
sS'pric'
p430
I5
sS'ground--'
p431
I1
sS'prid'
p432
I1
sS'transluc'
p433
I1
sS'assclown'
p434
I1
sS'priz'
p435
I2
sS'poison'
p436
I1
sS'cheaply'
p437
I1
sS'priv'
p438
I7
sS'despit'
p439
I14
sVbusy
p440
I13
sS'acquir'
p441
I1
sS'pledg'
p442
I2
sS'ment'
p443
I36
sS'walk-on'
p444
I1
sS'bust'
p445
I2
sS'bush'
p446
I10
sS'bliss'
p447
I1
sS'incredibley'
p448
I1
sS'rich'
p449
I7
sS'mottol'
p450
I1
sS'mend'
p451
I1
sS'unsoph'
p452
I1
sS'gangsta'
p453
I1
sS'ricc'
p454
I2
sS'neighb'
p455
I2
sS'\xc3'
p456
I5
sS'stop'
p457
I42
sS'stor'
p458
I9
sS'coast'
p459
I4
sS'pocket'
p460
I1
sS'next'
p461
I43
sS'ston'
p462
I10
sS'giggl'
p463
I3
sS'christopher'
p464
I8
sS'15'
p465
I23
sS'parachut'
p466
I1
sS'flinch'
p467
I1
sVcomply
p468
I6
sS'transpir'
p469
I1
sVdeny
p470
I1
sS'bat'
p471
I7
sS'bar'
p472
I22
sS'bas'
p473
I69
sS'patch'
p474
I3
sS'sauc'
p475
I1
sS'bag'
p476
I12
sS'extremley'
p477
I3
sS'bab'
p478
I2
sS'troop'
p479
I4
sS'saud'
p480
I1
sS'ban'
p481
I8
sS'bal'
p482
I6
sS'mcauley'
p483
I1
sS'crapfest'
p484
I2
sS'blew'
p485
I7
sS'vampir'
p486
I8
sS'fair'
p487
I15
sS'fluffy'
p488
I2
sS'clev'
p489
I8
sS'blee'
p490
I1
sS'all-too-typic'
p491
I1
sS'respons'
p492
I4
sS'fail'
p493
I34
sS'crouch'
p494
I2
sS'armageddon'
p495
I2
sS'bizar'
p496
I5
sS'fost'
p497
I5
sS'best'
p498
I87
sS'subject'
p499
I8
sS'00'
p500
I5
sS'said'
p501
I54
sS'duff'
p502
I2
sS'scorp'
p503
I2
sS'05'
p504
I1
sS'ringu'
p505
I2
sS'sail'
p506
I1
sS'irv'
p507
I1
sS'herc'
p508
I1
sS'humankind'
p509
I1
sS'gunie'
p510
I1
sS'war-mongering'
p511
I1
sS'midichl'
p512
I1
sS'glasgow'
p513
I1
sS'skimpy'
p514
I1
sS'need--such'
p515
I1
sS'screwball'
p516
I1
sS'omg'
p517
I4
sS'extend'
p518
I5
sS'azar'
p519
I1
sS'vitamin'
p520
I1
sS'aaliyah'
p521
I1
sS'snak'
p522
I8
sS'unsatisfact'
p523
I1
sS'wtf'
p524
I7
sS'gwyn'
p525
I1
sS'wth'
p526
I3
sS'cousin'
p527
I2
sS'debr'
p528
I3
sVpity
p529
I7
sS'unr'
p530
I20
sS'unt'
p531
I1
sS'unw'
p532
I1
sVcountry
p533
I12
sS'cup'
p534
I1
sS'misguid'
p535
I1
sS'against'
p536
I19
sS'unb'
p537
I1
sS'unc'
p538
I1
sS'und'
p539
I24
sS'unh'
p540
I1
sS'punctu'
p541
I1
sS'rehash'
p542
I4
sS'vain'
p543
I1
sS'old-farty'
p544
I1
sS'coconut'
p545
I1
sS'height'
p546
I1
sS'selznick'
p547
I1
sS'foray'
p548
I1
sS'diff'
p549
I26
sS'assum'
p550
I11
sS'filmak'
p551
I1
sS'complaint-'
p552
I1
sS'fre'
p553
I15
sS'frist'
p554
I1
sS'9th'
p555
I1
sS'three'
p556
I41
sS'tiny'
p557
I4
sS'.'
p558
I9032
sS'advert'
p559
I6
sS'much'
p560
I183
sS'wuld'
p561
I1
sS'interpret'
p562
I1
sS'interest'
p563
I64
sS'jackass'
p564
I2
sS'akroyd'
p565
I1
sS'pro'
p566
I1
sS'idol'
p567
I3
sS'threw'
p568
I2
sS'distast'
p569
I1
sS'regul'
p570
I3
sS'recomend'
p571
I4
sS'spit'
p572
I6
sS'eastern'
p573
I1
sS'suppress'
p574
I1
sS'sooooo'
p575
I3
sS'charleton'
p576
I1
sS'spic'
p577
I2
sS'kssing'
p578
I1
sS'spid'
p579
I1
sS'child'
p580
I35
sS'anti-arab'
p581
I1
sS'spik'
p582
I2
sS'sad'
p583
I34
sS'spin'
p584
I4
sS'modern-day'
p585
I1
sS'remmington'
p586
I1
sS'13th'
p587
I8
sS'"romeo'
p588
I1
sS'gritty'
p589
I2
sS'nowh'
p590
I16
sS'sly'
p591
I2
sS'tang'
p592
I1
sS'cyber-jason'
p593
I1
sS'sabertoo'
p594
I1
sS'billionair'
p595
I1
sS'contemp'
p596
I2
sS'near'
p597
I26
sS'hopkin'
p598
I6
sVoccas
p599
I9
sS'deceipt'
p600
I2
sS'spawn'
p601
I1
sS'ix'
p602
I1
sS'cand'
p603
I3
sS'squiggl'
p604
I1
sS'mexico'
p605
I4
sS'iq'
p606
I9
sS'is'
p607
I1819
sS'ir'
p608
I5
sS'it'
p609
I2483
sS'disprov'
p610
I1
sS'iv'
p611
I5
sS'ii'
p612
I14
sS'jess'
p613
I1
sVcant
p614
I13
sS'catchphras'
p615
I1
sS'im'
p616
I26
sS'il'
p617
I9
sS'jest'
p618
I1
sS'in'
p619
I1379
sS'gen-x'
p620
I1
sS'gen-y'
p621
I1
sS'ic'
p622
I6
sS'controversy'
p623
I1
sS'id'
p624
I8
sS'disappear'
p625
I5
sS'if'
p626
I380
sS'grown'
p627
I5
sS'godzill'
p628
I2
sS'thingy'
p629
I1
sS'hokey'
p630
I5
sS'receiv'
p631
I7
sS':'
p632
I149
sS'hono'
p633
I1
sS'honk'
p634
I1
sS'any'
p635
I193
sS'simil'
p636
I4
sS'split'
p637
I2
sS'80s'
p638
I2
sS'costum'
p639
I10
sS'bacaus'
p640
I1
sS'stiffl'
p641
I1
sS'kit'
p642
I1
sS'preachy'
p643
I5
sS'unicorn'
p644
I1
sS'overt'
p645
I1
sS'overs'
p646
I1
sS'resta'
p647
I4
sS'kid'
p648
I95
sS'schnieder'
p649
I1
sS'romp'
p650
I1
sS'babysit'
p651
I1
sS'v8s'
p652
I1
sS'left'
p653
I62
sS'yeh'
p654
I1
sS'gigolo'
p655
I2
sS'yem'
p656
I2
sS'yel'
p657
I4
sS'just'
p658
I532
sVkinky
p659
I1
sS'nowaday'
p660
I4
sS'sleepy'
p661
I5
sS'ordin'
p662
I2
sS'psych'
p663
I5
sS'plast'
p664
I4
sS'purit'
p665
I1
sS'yep'
p666
I1
sS'plight'
p667
I2
sS'cretin'
p668
I2
sS'whitak'
p669
I1
sS'yet'
p670
I53
sS'hah'
p671
I1
sS'alum'
p672
I1
sS'speilberg'
p673
I2
sS'unsucess'
p674
I1
sS'hal'
p675
I15
sS'ham'
p676
I1
sS'han'
p677
I1
sS'harbo'
p678
I2
sS'hab'
p679
I1
sS'had'
p680
I250
sS'hay'
p681
I1
sS'wretch'
p682
I12
sVeasy
p683
I25
sS'prison'
p684
I2
sS'hap'
p685
I77
sS'har'
p686
I3
sS'east'
p687
I6
sS'adress'
p688
I2
sS'hau'
p689
I1
sS'hav'
p690
I728
sS'sanit'
p691
I1
sS'mcdormand'
p692
I1
sVtwinky
p693
I1
sS'hint'
p694
I1
sS'anyway'
p695
I26
sS'background'
p696
I6
sVportenty
p697
I1
sVwovy
p698
I1
sS'shadow'
p699
I4
sVsacreligy
p700
I1
sS'athlet'
p701
I3
sS'avenu'
p702
I1
sS'squal'
p703
I1
sS'airhead'
p704
I5
sS'bobby'
p705
I1
sS'nudg'
p706
I1
sS'steph'
p707
I3
sS'remind'
p708
I7
sS'riiiight'
p709
I1
sS'gwendolyn'
p710
I1
sS'scout'
p711
I1
sS'tombston'
p712
I1
sS'battlefield'
p713
I8
sS'www'
p714
I5
sS'right'
p715
I77
sS'old'
p716
I108
sS'creek'
p717
I3
sS'deal'
p718
I18
sS'manniquin'
p719
I1
sS'disorg'
p720
I1
sS'scif'
p721
I2
sS'interv'
p722
I1
sS'disord'
p723
I4
sS'deaf'
p724
I1
sS'maxim'
p725
I1
sS'dead'
p726
I50
sS'intern'
p727
I3
sS'intoxc'
p728
I1
sS'afgh'
p729
I1
sS'dear'
p730
I6
sS'wwi'
p731
I1
sS'creep'
p732
I4
sS'insensit'
p733
I1
sS'for'
p734
I776
sS'bottom'
p735
I9
sS'suckiest'
p736
I1
sS'totalit'
p737
I1
sS'fox'
p738
I2
sS'gooch'
p739
I1
sS'witty'
p740
I4
sS'circ'
p741
I6
sS'foc'
p742
I6
sS'umm'
p743
I1
sS'condit'
p744
I3
sS'bizz'
p745
I1
sS'redninef'
p746
I1
sS'trach'
p747
I1
sS'astin'
p748
I1
sS'ww2'
p749
I2
sS'moviedom'
p750
I2
sS'badbadbadbadbad'
p751
I1
sS'burn'
p752
I14
sS'lefty'
p753
I1
sVyorky
p754
I2
sS'unst'
p755
I2
sS'burt'
p756
I2
sS'colleg'
p757
I9
sS'promot'
p758
I11
sS'defton'
p759
I1
sS'dragonbal'
p760
I1
sS'bury'
p761
I1
sS'tyres'
p762
I1
sS'surv'
p763
I6
sS'punny'
p764
I1
sS'troubl'
p765
I9
sS'innuendo'
p766
I1
sS'lame-ass'
p767
I1
sS'o'
p768
I14
sS'doolittl'
p769
I1
sS'tinkerbel'
p770
I1
sS'son-in-laws'
p771
I1
sS'coars'
p772
I3
sS'commit'
p773
I5
sS'thelm'
p774
I1
sS'purty'
p775
I1
sS'soc'
p776
I5
sS'telephon'
p777
I1
sS'sod'
p778
I1
sS'lied'
p779
I1
sS'dyson'
p780
I1
sS'zepplin'
p781
I1
sS'som'
p782
I217
sS'sol'
p783
I2
sS'soo'
p784
I5
sS'son'
p785
I16
sS'down'
p786
I93
sS'pair'
p787
I1
sS'drippy'
p788
I1
sS'sor'
p789
I2
sS'sou'
p790
I12
sS'wrap'
p791
I4
sS'stiv'
p792
I1
sS'uh-uh'
p793
I1
sS'resourc'
p794
I1
sS'polaksky'
p795
I1
sS'overus'
p796
I3
sS'"scream"'
p797
I1
sS'support'
p798
I18
sS'avail'
p799
I1
sS'lampoon'
p800
I4
sS'joseph'
p801
I2
sS'let-down'
p802
I1
sS'palp'
p803
I1
sS'crapdotcom'
p804
I1
sS'happy'
p805
I23
sS'etho'
p806
I1
sS'headach'
p807
I9
sS'30s'
p808
I1
sS'cosby'
p809
I2
sS'form'
p810
I15
sS'forc'
p811
I30
sS'unexploit'
p812
I1
sS'forg'
p813
I7
sS'ford'
p814
I9
sS'haywor'
p815
I2
sS'berg'
p816
I4
sS'synonym'
p817
I1
sS'tv-g'
p818
I2
sS'fort'
p819
I1
sS'duel'
p820
I1
sVindepend
p821
I4
sS'azz'
p822
I1
sS'mighty'
p823
I1
sS'unrel'
p824
I2
sS'150'
p825
I1
sS'proud'
p826
I3
sS'shin'
p827
I5
sS'traff'
p828
I3
sS'stol'
p829
I1
sS'158'
p830
I1
sVindy
p831
I1
sS'textbook'
p832
I1
sS'tosh'
p833
I1
sVbady
p834
I1
sS'die-'
p835
I1
sS'shir'
p836
I3
sS'ship'
p837
I14
sS'californ'
p838
I2
sS'arnaz'
p839
I1
sS'thund'
p840
I1
sS'wee'
p841
I4
sS'badg'
p842
I1
sS'smelt'
p843
I1
sS'"surprise"'
p844
I1
sS'excel'
p845
I15
sS'hemmorh'
p846
I1
sS'half-witted'
p847
I1
sS'flood'
p848
I2
sS'venison'
p849
I1
sS'dir'
p850
I2
sS'historica'
p851
I1
sS'presum'
p852
I1
sS'snick'
p853
I2
sS'premarit'
p854
I1
sS'legitim'
p855
I2
sS'intend'
p856
I7
sS'amaz'
p857
I25
sS'devot'
p858
I1
sS'felt'
p859
I35
sS'youpatheticfool'
p860
I1
sS'diet'
p861
I1
sS'frodo'
p862
I1
sS'intens'
p863
I2
sS'muse'
p864
I1
sS'gerog'
p865
I1
sS'anti-white'
p866
I3
sS'aragorn'
p867
I1
sS'weekend'
p868
I1
sS'russo'
p869
I1
sS'died'
p870
I15
sS'derail'
p871
I1
sS'mathew'
p872
I1
sS'midevil'
p873
I1
sS'dunst'
p874
I3
sS'jackel'
p875
I1
sS'open-minded'
p876
I1
sS'pseudo'
p877
I2
sS'jacket'
p878
I1
sS'mummy'
p879
I2
sS'rough'
p880
I2
sVlawr
p881
I9
sS'triangl'
p882
I5
sS'push'
p883
I8
sS'wheth'
p884
I7
sS'sooooooooooooooooooooooooooo'
p885
I1
sS'childr'
p886
I31
sS'befriend'
p887
I1
sS'corps'
p888
I4
sS'skip'
p889
I12
sS'cking'
p890
I1
sS'sex-toys'
p891
I1
sS'milf'
p892
I1
sS'mild'
p893
I4
sS'skil'
p894
I11
sS'skin'
p895
I7
sS'shot'
p896
I30
sS'chair'
p897
I5
sS'muppet'
p898
I3
sS'milk'
p899
I2
sViraqy
p900
I1
sS'vet'
p901
I4
sS'depend'
p902
I3
sS'fifth-rate'
p903
I1
sS'hound-dog'
p904
I1
sS'rel'
p905
I20
sS'0'
p906
I15
sS'a-list'
p907
I2
sS'flock'
p908
I1
sS'laest'
p909
I1
sS'ven'
p910
I1
sS'self-involved'
p911
I1
sS'vehic'
p912
I5
sS'shoot'
p913
I19
sS'over-the-top'
p914
I2
sS'string'
p915
I1
sS'jerk'
p916
I4
sS'yeast'
p917
I1
sS'rendit'
p918
I1
sS'mcconaughy'
p919
I1
sS'sappy'
p920
I4
sS'lynch'
p921
I1
sS'dodg'
p922
I1
sS'exact'
p923
I17
sS'dil'
p924
I1
sS'dim'
p925
I3
sS'din'
p926
I3
sS'honeyman-pinhead'
p927
I1
sS'tear'
p928
I6
sS'die'
p929
I37
sS'leftov'
p930
I1
sS'dig'
p931
I2
sS'cameo'
p932
I8
sS'dic'
p933
I1
sS'magnet'
p934
I1
sS'dafo'
p935
I1
sS'live-action'
p936
I1
sS'team'
p937
I10
sS'nos'
p938
I4
sS'round'
p939
I2
sS'wastin'
p940
I1
sS'dis'
p941
I4
sS'akward'
p942
I1
sS'mn'
p943
I1
sS'attil'
p944
I1
sS'everyon'
p945
I51
sS'scen'
p946
I146
sS'compens'
p947
I2
sS'sign'
p948
I19
sS'asham'
p949
I17
sS'meanac'
p950
I1
sVbyont
p951
I2
sS'woddy'
p952
I1
sS'elton'
p953
I1
sS'okinaw'
p954
I1
sS'diect'
p955
I1
sS'tng'
p956
I1
sS'300'
p957
I1
sS'suspect'
p958
I3
sS'hand-to-hand'
p959
I1
sS'addl'
p960
I1
sS'freaky'
p961
I5
sS'mp'
p962
I1
sS'ridic'
p963
I40
sVjoly
p964
I11
sS'jury'
p965
I1
sS'dwarf'
p966
I2
sS'asault'
p967
I1
sS'bh'
p968
I1
sS'clerk'
p969
I2
sS'makeup'
p970
I7
sS'french'
p971
I7
sS'modic'
p972
I2
sS'snor'
p973
I3
sS'stel'
p974
I1
sS'deceit'
p975
I2
sS'deceiv'
p976
I1
sS'langu'
p977
I13
sS'easton'
p978
I4
sS'wait'
p979
I41
sS'box'
p980
I14
sS'boy'
p981
I34
sS'hbo'
p982
I7
sS'ref'
p983
I7
sS'monoton'
p984
I1
sS'togeth'
p985
I30
sS'invit'
p986
I3
sS'bratty'
p987
I1
sS'convict'
p988
I1
sS'bring-up'
p989
I1
sS'bow'
p990
I1
sS'cusack'
p991
I2
sS'thrashed'
p992
I1
sS'bon'
p993
I6
sS'boo'
p994
I2
sS'priceless'
p995
I1
sS'bob'
p996
I10
sS'sugarco'
p997
I1
sS'bog'
p998
I2
sVprevy
p999
I7
sS'elect'
p1000
I2
sS'rambl'
p1001
I1
sS'goldbl'
p1002
I2
sS'canin'
p1003
I1
sS'bloody'
p1004
I3
sS'zeta-jone'
p1005
I1
sS'bad-no'
p1006
I1
sS'instal'
p1007
I1
sS'destoy'
p1008
I1
sS'everybody'
p1009
I5
sS'reminisc'
p1010
I4
sS'franch'
p1011
I13
sS'raspberry'
p1012
I1
sS'eyebal'
p1013
I1
sS'ariel'
p1014
I1
sS'saddl'
p1015
I1
sS'angry'
p1016
I9
sS'univers'
p1017
I6
sS'visit'
p1018
I5
sS'swed'
p1019
I1
sS'by'
p1020
I262
sS'ahhh'
p1021
I1
sS'dict'
p1022
I2
sS'thru'
p1023
I4
sS'pinchfac'
p1024
I1
sS'skul'
p1025
I3
sS'artillery'
p1026
I1
sS'travesty'
p1027
I10
sVaffy
p1028
I1
sS'peopl'
p1029
I218
sS'ooo'
p1030
I1
sS'israel'
p1031
I1
sS'daredevil'
p1032
I1
sS'oop'
p1033
I1
sS'effort'
p1034
I16
sS'buscem'
p1035
I1
sS'fly'
p1036
I13
sS'honey'
p1037
I3
sS'film-'
p1038
I2
sS'tokyo'
p1039
I1
sS'reckogn'
p1040
I1
sS'pretend'
p1041
I8
sS'flu'
p1042
I1
sS'x-file'
p1043
I1
sS'fli'
p1044
I1
sS'wallet'
p1045
I2
sS'sour'
p1046
I1
sS'whatev'
p1047
I24
sS'flo'
p1048
I10
sS's-her-name'
p1049
I1
sS'claim'
p1050
I11
sS'crazy'
p1051
I22
sS'favourit'
p1052
I2
sS'cantidad'
p1053
I1
sS'predict'
p1054
I56
sS'reynold'
p1055
I1
sS'alright'
p1056
I6
sS'agend'
p1057
I2
sS'pink'
p1058
I3
sS'cinam'
p1059
I1
sS'definatley'
p1060
I1
sS'predelict'
p1061
I1
sS'sunday'
p1062
I4
sS'emotionless'
p1063
I1
sS'sword'
p1064
I2
sS'trollop'
p1065
I2
sS's"'
p1066
I1
sS'ultra-boring'
p1067
I1
sS'map'
p1068
I1
sS'144'
p1069
I1
sS'mar'
p1070
I2
sS'sorority-mad'
p1071
I1
sS'mat'
p1072
I38
sS'may'
p1073
I52
sS'snl'
p1074
I6
sS'spot'
p1075
I6
sS'spok'
p1076
I7
sS'stupid-like'
p1077
I1
sS'mad'
p1078
I253
sS'crappiest'
p1079
I1
sS'such'
p1080
I106
sS'mak'
p1081
I400
sS'maj'
p1082
I26
sS'filthy'
p1083
I1
sS'grow'
p1084
I8
sS'brainless'
p1085
I2
sS'man'
p1086
I104
sS'stress'
p1087
I2
sS'aimless'
p1088
I1
sS'waist'
p1089
I11
sVrepuls
p1090
I3
sS'ss'
p1091
I1
sS'sr'
p1092
I1
sS'supertrash'
p1093
I1
sS'disembowel'
p1094
I1
sS'q'
p1095
I3
sVplaus
p1096
I1
sS'switch'
p1097
I3
sS'sh'
p1098
I23
sS'so'
p1099
I493
sS'scrip'
p1100
I1
sS'democr'
p1101
I3
sS'f---ing'
p1102
I1
sS'travel'
p1103
I4
sS'talk'
p1104
I49
sS'lsd'
p1105
I1
sS'konk'
p1106
I1
sS'horriff'
p1107
I1
sS'footstep'
p1108
I1
sS'shaky'
p1109
I2
sS'rabbl'
p1110
I2
sS'star-studded'
p1111
I1
sS'kong'
p1112
I1
sS'tti'
p1113
I1
sS'jimmy'
p1114
I3
sS'pitch'
p1115
I4
sS'elain'
p1116
I3
sS'equip'
p1117
I3
sS'benjamin'
p1118
I1
sVconvuls
p1119
I1
sS'glorifiact'
p1120
I1
sS'interspers'
p1121
I1
sS'group'
p1122
I18
sS'thumb'
p1123
I7
sS'1988'
p1124
I1
sS'dectect'
p1125
I1
sS'infint'
p1126
I1
sS'torn'
p1127
I1
sS'dysfunct'
p1128
I1
sS'jiv'
p1129
I3
sS'tort'
p1130
I17
sS'gem'
p1131
I2
sS'fright'
p1132
I9
sS'dangerfield'
p1133
I1
sS'main'
p1134
I29
sS'937'
p1135
I1
sS'no-brainer'
p1136
I1
sS'this-is-crap'
p1137
I1
sS'within'
p1138
I12
sS'feelin'
p1139
I2
sS'interview'
p1140
I5
sS'squand'
p1141
I2
sS'mocku'
p1142
I1
sS'in-laws'
p1143
I1
sVpossess
p1144
I3
sS'sympath'
p1145
I1
sS'flont'
p1146
I1
sS'zail'
p1147
I1
sS'truckload'
p1148
I1
sS'didn'
p1149
I192
sS'oliv'
p1150
I2
sS'careless'
p1151
I1
sS'ledg'
p1152
I1
sS'rock'
p1153
I24
sVinfus
p1154
I1
sS'confid'
p1155
I3
sS'imtatiaon'
p1156
I1
sS'nick'
p1157
I4
sS'kimb'
p1158
I1
sS'hellra'
p1159
I2
sS'receipt'
p1160
I1
sS'continu'
p1161
I13
sS'harharharh'
p1162
I1
sS'prostitut'
p1163
I4
sS'girl'
p1164
I65
sS'jackson'
p1165
I6
sS'3rd'
p1166
I3
sS'blu'
p1167
I11
sS'moviemak'
p1168
I1
sS'lad'
p1169
I3
sS'blo'
p1170
I2
sS'priest'
p1171
I1
sS'christain'
p1172
I1
sS'snob-i'
p1173
I1
sS'internet'
p1174
I4
sS'intermit'
p1175
I1
sS'formula'
p1176
I1
sS'norieg'
p1177
I1
sS'correct'
p1178
I11
sS'goth'
p1179
I3
sS'diseas'
p1180
I2
sVzomby
p1181
I13
sS'cupcak'
p1182
I1
sS'domest'
p1183
I2
sS'romano'
p1184
I3
sS'thrilling'
p1185
I1
sS'disrespect'
p1186
I7
sS'orl'
p1187
I1
sVlab
p1188
I1
sS'org'
p1189
I2
sS'ord'
p1190
I8
sS'cough'
p1191
I2
sVseventy
p1192
I2
sS'gott'
p1193
I3
sS'insuff'
p1194
I1
sS'shroomwoman'
p1195
I2
sS'---'
p1196
I2
sS'dunno'
p1197
I1
sS'punk'
p1198
I3
sS'punh'
p1199
I1
sS'chevy'
p1200
I2
sS'thing'
p1201
I219
sS'nuff'
p1202
I3
sS'aboard'
p1203
I2
sS'think'
p1204
I252
sS'first'
p1205
I213
sS'oper'
p1206
I1
sS'crim'
p1207
I10
sS'degr'
p1208
I4
sS'carlyl'
p1209
I2
sS'lightsab'
p1210
I1
sS'rachel'
p1211
I5
sS'unnecess'
p1212
I6
sS'daltry'
p1213
I1
sS'spad'
p1214
I3
sS'b-grade'
p1215
I2
sS'crit'
p1216
I22
sS'u2'
p1217
I1
sS'cheesy'
p1218
I25
sVont
p1219
I66
sS'cris'
p1220
I3
sS'urin'
p1221
I1
sS'city'
p1222
I7
sS'looong'
p1223
I1
sS'thoughtless'
p1224
I1
sS'murky'
p1225
I2
sS'slept'
p1226
I2
sS'soooooooooooooooooooooooooooooooo'
p1227
I1
sS'2'
p1228
I97
sS'fiery'
p1229
I1
sS'penelop'
p1230
I1
sS'individ'
p1231
I3
sS'mermaid'
p1232
I1
sS'includ'
p1233
I17
sS'subplot'
p1234
I2
sS'attroc'
p1235
I1
sS'unfil'
p1236
I1
sS'memb'
p1237
I9
sS'snatch'
p1238
I1
sS'broadcast'
p1239
I1
sS'forward'
p1240
I13
sVsenty
p1241
I5
sS'devito'
p1242
I3
sS'boyfriend'
p1243
I8
sS'11'
p1244
I10
sS'10'
p1245
I28
sS'13'
p1246
I3
sS'12'
p1247
I12
sS'iceberg'
p1248
I3
sS'third'
p1249
I6
sS'16'
p1250
I4
sS'19'
p1251
I2
sS'18'
p1252
I4
sS'non-stop'
p1253
I2
sS'so-so'
p1254
I1
sVorgy
p1255
I1
sS'mako'
p1256
I1
sS'oooohhhh'
p1257
I1
sS'spout'
p1258
I1
sS'sak'
p1259
I8
sS'sai'
p1260
I1
sS'san'
p1261
I3
sS'sam'
p1262
I69
sS'sal'
p1263
I5
sS'sult'
p1264
I1
sS'preston'
p1265
I1
sS'sag'
p1266
I2
sS'saf'
p1267
I2
sS'talib'
p1268
I2
sS'alleg'
p1269
I2
sS'say'
p1270
I179
sS'rees'
p1271
I4
sS'comedian'
p1272
I1
sS'sap'
p1273
I2
sS'saw'
p1274
I99
sS'sav'
p1275
I80
sS'kevin'
p1276
I16
sS'sat'
p1277
I18
sS'perfectly-awful'
p1278
I1
sS'hilfig'
p1279
I1
sS'mind-numbingly'
p1280
I2
sS'clunk'
p1281
I4
sS'denomin'
p1282
I3
sS'destroy'
p1283
I13
sS'scorses'
p1284
I4
sS'noth'
p1285
I126
sS'channel'
p1286
I5
sS'200'
p1287
I2
sS'pain'
p1288
I31
sS'track'
p1289
I5
sS'poorly-acted'
p1290
I1
sS'hellboy'
p1291
I1
sS'knew'
p1292
I17
sS'hairless'
p1293
I1
sS'paid'
p1294
I20
sS'non-actors'
p1295
I1
sS'abus'
p1296
I5
sS'tract'
p1297
I1
sVcoincid
p1298
I1
sS'scraps'
p1299
I1
sS'everlast'
p1300
I1
sS'pathet'
p1301
I57
sS'salm'
p1302
I2
sS'angst'
p1303
I4
sS'chiant'
p1304
I1
sS'archa'
p1305
I1
sS'stigmat'
p1306
I1
sS'julian'
p1307
I4
sS'lawy'
p1308
I2
sS'salt'
p1309
I2
sS'salv'
p1310
I3
sS'shop'
p1311
I3
sS'decl'
p1312
I1
sS'shor'
p1313
I1
sS'prankst'
p1314
I1
sS'shov'
p1315
I3
sS'show'
p1316
I105
sS'ubiquit'
p1317
I1
sVinfery
p1318
I2
sS'merit'
p1319
I7
sVpremy
p1320
I1
sS'bright'
p1321
I7
sS'keyst'
p1322
I1
sS'pump'
p1323
I1
sS'takin'
p1324
I1
sS'teeny'
p1325
I5
sS'japenses'
p1326
I1
sS'slow'
p1327
I28
sS'slop'
p1328
I1
sS'j-should'
p1329
I1
sS'dick'
p1330
I4
sS'plumb'
p1331
I1
sS'foward'
p1332
I1
sS'going'
p1333
I108
sS'black'
p1334
I44
sS'hockey'
p1335
I2
sS'kirst'
p1336
I2
sS'enthusiasm'
p1337
I1
sS'funfest'
p1338
I1
sS'clubfoot'
p1339
I1
sS'ger'
p1340
I7
sS'get'
p1341
I296
sS'mund'
p1342
I1
sS'gettysburg'
p1343
I2
sS'hiss'
p1344
I1
sS'repr'
p1345
I1
sS'midriff'
p1346
I1
sS'8-11'
p1347
I1
sS'spraying'
p1348
I1
sS'drumlin'
p1349
I1
sS'gee'
p1350
I9
sVimport
p1351
I10
sS'gen'
p1352
I43
sS'requir'
p1353
I5
sS'guilt-ridden'
p1354
I1
sS'stupit'
p1355
I1
sS'frampton'
p1356
I2
sS'non-effrontery'
p1357
I1
sS'busiest'
p1358
I1
sS'borrow'
p1359
I2
sS'unsubl'
p1360
I1
sS'stupid'
p1361
I254
sS'profanity-filled'
p1362
I2
sS'nostril'
p1363
I1
sS'vito'
p1364
I1
sS'cheerlead'
p1365
I6
sS'trilog'
p1366
I4
sS'branagh'
p1367
I1
sS'zet'
p1368
I1
sS'long-distant'
p1369
I1
sS'singer"'
p1370
I1
sS'menad'
p1371
I1
sS'enco'
p1372
I1
sS'segway'
p1373
I1
sS'menac'
p1374
I4
sS'seat'
p1375
I5
sS'sean'
p1376
I9
sS'job-'
p1377
I1
sS'seag'
p1378
I1
sS'fahrenhyp'
p1379
I2
sS'"scary"'
p1380
I1
sS'infinit'
p1381
I1
sS'planet'
p1382
I13
sS'gorill'
p1383
I1
sS'overdon'
p1384
I9
sS'befuddl'
p1385
I1
sS'freeuk'
p1386
I1
sS'teacup'
p1387
I1
sVtelevid
p1388
I7
sS'prettiest'
p1389
I1
sS'shroowoman'
p1390
I1
sS'henchm'
p1391
I1
sS'across'
p1392
I10
sVrady
p1393
I1
sS'frust'
p1394
I3
sS'caan'
p1395
I1
sS'spars'
p1396
I1
sS'screen'
p1397
I46
sS'preach'
p1398
I3
sS'timmy'
p1399
I1
sS'jr'
p1400
I3
sS'am'
p1401
I141
sS'hunk'
p1402
I1
sS'jobe'
p1403
I1
sS'tun'
p1404
I4
sS'revil'
p1405
I1
sS'bigalow'
p1406
I1
sS'spark'
p1407
I2
sS'ja'
p1408
I3
sS'abomin'
p1409
I4
sS'tug'
p1410
I1
sS'jfk'
p1411
I1
sS'oust'
p1412
I1
sS'furlong'
p1413
I1
sS'tuck'
p1414
I1
sS'many'
p1415
I95
sS'borneo'
p1416
I2
sS'real-life'
p1417
I1
sS'epitom'
p1418
I2
sS'madcap'
p1419
I1
sS'auburn-mississippi'
p1420
I1
sS's'
p1421
I821
sVmand
p1422
I1
sS'candlestick'
p1423
I1
sS'improv'
p1424
I5
sS'conufus'
p1425
I1
sS'leath'
p1426
I3
sS'among'
p1427
I6
sS'soppos'
p1428
I1
sS'crucifix'
p1429
I1
sS'twit'
p1430
I1
sS'shatn'
p1431
I2
sS'motorcyc'
p1432
I2
sS'3000'
p1433
I2
sS'timmm'
p1434
I1
sS'cancel'
p1435
I2
sS'prud'
p1436
I4
sVextinct
p1437
I1
sS'tub'
p1438
I5
sS'custody'
p1439
I3
sS'twic'
p1440
I7
sS'wal-mart"'
p1441
I1
sS'tax'
p1442
I3
sS'ultim'
p1443
I3
sS'arty'
p1444
I1
sS'west'
p1445
I2
sS'suicid'
p1446
I6
sS'mark'
p1447
I15
sS'mart'
p1448
I5
sS'afterma'
p1449
I1
sS'roald'
p1450
I3
sS'arth'
p1451
I1
sS'shmack'
p1452
I1
sS'reflex'
p1453
I1
sS'mary'
p1454
I9
sS'gist'
p1455
I1
sS'burkettsvil'
p1456
I2
sS'thousand'
p1457
I8
sS'bombadil'
p1458
I1
sS'rememb'
p1459
I34
sS'abject'
p1460
I1
sS'mosnt'
p1461
I1
sS'odyssey'
p1462
I1
sS'griffi'
p1463
I3
sS'sound'
p1464
I25
sVchar
p1465
I4
sS'queasy'
p1466
I1
sS'scarlet'
p1467
I1
sVcred
p1468
I4
sVaudy
p1469
I30
sS'braff'
p1470
I1
sS'invok'
p1471
I2
sS'ratchet'
p1472
I1
sS'x-files'
p1473
I1
sS'hayek'
p1474
I1
sS'krank'
p1475
I1
sS'cart'
p1476
I1
sVfamy
p1477
I23
sS'blaz'
p1478
I2
sS'influ'
p1479
I2
sS'bant'
p1480
I1
sS'cemet'
p1481
I1
sS'blat'
p1482
I4
sS'destin'
p1483
I3
sS'blah'
p1484
I15
sS'monoloug'
p1485
I1
sVabsolv
p1486
I81
sS'blam'
p1487
I11
sS'brok'
p1488
I4
sVconvint
p1489
I16
sS'blab'
p1490
I1
sS'blad'
p1491
I2
sS'pap'
p1492
I11
sS'par'
p1493
I24
sS'grimac'
p1494
I1
sS'pat'
p1495
I4
sS'harsh'
p1496
I2
sS'pay'
p1497
I28
sS'tour'
p1498
I2
sS'damod'
p1499
I1
sS'pac'
p1500
I12
sS'speech'
p1501
I8
sS'pag'
p1502
I5
sS'damon'
p1503
I4
sS'tout'
p1504
I1
sS'struggling'
p1505
I1
sS'appaul'
p1506
I1
sS'pal'
p1507
I3
sS'pam'
p1508
I2
sS'pan'
p1509
I8
sS'breakdown'
p1510
I2
sS'blasphem'
p1511
I2
sS'oil'
p1512
I5
sS'pornograph'
p1513
I7
sS'swiss'
p1514
I2
sVdefy
p1515
I1
sS'assist'
p1516
I1
sS'accompl'
p1517
I3
sVextery
p1518
I1
sS'charract'
p1519
I1
sS'shopworn'
p1520
I1
sS'drain'
p1521
I2
sS'classroom'
p1522
I1
sS'peach'
p1523
I1
sS'pacino'
p1524
I1
sS'genit'
p1525
I1
sS'anencepha'
p1526
I1
sS'costn'
p1527
I4
sVappropry
p1528
I3
sS'nak'
p1529
I13
sS'back-drop'
p1530
I1
sS'grumpy'
p1531
I1
sS'hubby'
p1532
I1
sS'parody'
p1533
I10
sS'lysol'
p1534
I1
sS'sprayed'
p1535
I1
sS'uness'
p1536
I1
sS'execut'
p1537
I9
sS'being'
p1538
I97
sS'money'
p1539
I149
sS'aaaarghhhh'
p1540
I1
sS'disconcert'
p1541
I2
sS'primetim'
p1542
I1
sS'rest'
p1543
I25
sS'michig'
p1544
I1
sS'self-indulgent'
p1545
I4
sS'wifey'
p1546
I1
sS'aspect'
p1547
I6
sS'desdemon'
p1548
I1
sS'asleep-'
p1549
I1
sS'hayley'
p1550
I1
sS'hipst'
p1551
I1
sS'indulg'
p1552
I1
sS'sixteen'
p1553
I1
sS'clueless'
p1554
I2
sS'blacul'
p1555
I1
sS'mcdonald'
p1556
I4
sS'lifelong'
p1557
I1
sS'anacond'
p1558
I1
sS'littl'
p1559
I101
sS'ahhhh'
p1560
I1
sS'4'
p1561
I22
sS'nav'
p1562
I2
sS'self-promoting'
p1563
I1
sS'sodom'
p1564
I1
sS'dickt'
p1565
I1
sS'camcord'
p1566
I2
sS'grip'
p1567
I3
sS'pastey'
p1568
I2
sS'zion'
p1569
I1
sS'around'
p1570
I64
sS'mor'
p1571
I231
sS'mop'
p1572
I1
sS'atmosh'
p1573
I1
sS'mov'
p1574
I34
sS'mou'
p1575
I5
sS'mot'
p1576
I13
sS'dark'
p1577
I39
sS'naz'
p1578
I5
sS'chainsaw'
p1579
I5
sS'moo'
p1580
I1
sS'mon'
p1581
I3
sS'mom'
p1582
I55
sS'loos'
p1583
I5
sS'mob'
p1584
I1
sS'grim'
p1585
I1
sS'grin'
p1586
I1
sS'mod'
p1587
I7
sS'christina'
p1588
I4
sS'missing-'
p1589
I1
sS'stranger'
p1590
I1
sS'61'
p1591
I1
sS'afterbir'
p1592
I2
sS'clad'
p1593
I1
sS'juxtaposit'
p1594
I1
sS'pol'
p1595
I9
sS'republ'
p1596
I7
sS'heavy-handed'
p1597
I1
sS'hallelujah'
p1598
I1
sS'claw'
p1599
I3
sVpronount
p1600
I1
sS'clar'
p1601
I2
sS'stinkeroo'
p1602
I1
sS'65'
p1603
I1
sS'sack'
p1604
I1
sS'sleepless'
p1605
I1
sS'cabl'
p1606
I8
sS'witchcraft'
p1607
I4
sS'pushy'
p1608
I1
sVascend
p1609
I1
sS'tvs'
p1610
I1
sS'l'
p1611
I13
sS'spectac'
p1612
I3
sS'boar'
p1613
I1
sS'dojo'
p1614
I1
sS'adequ'
p1615
I3
sS'tatoo'
p1616
I1
sS'afflick'
p1617
I1
sS'junct'
p1618
I1
sS'joan'
p1619
I1
sS'gross'
p1620
I29
sS'tota'
p1621
I2
sS'whould'
p1622
I2
sS'outt'
p1623
I2
sS'confirm'
p1624
I3
sS'noon'
p1625
I1
sS'exil'
p1626
I1
sS'evolv'
p1627
I1
sS'exit'
p1628
I1
sS'boat'
p1629
I5
sS'telethon'
p1630
I1
sS'cuonfus'
p1631
I1
sS'gruesom'
p1632
I3
sS'911'
p1633
I2
sS'squabbl'
p1634
I1
sS'refer'
p1635
I1
sS'hyst'
p1636
I1
sS'booooo'
p1637
I2
sS'acc'
p1638
I23
sS'island'
p1639
I3
sS'industry'
p1640
I6
sS'ach'
p1641
I1
sS'filmgo'
p1642
I1
sS'air-sickness'
p1643
I1
sS'pleez'
p1644
I1
sS'stretch'
p1645
I1
sS'roam'
p1646
I2
sS'threesome'
p1647
I1
sS'bond'
p1648
I18
sS'road'
p1649
I5
sS'no-talent'
p1650
I2
sS'coupon'
p1651
I1
sS'spreading'
p1652
I2
sS'dung-beetle'
p1653
I1
sS'einstein'
p1654
I1
sS'uptown'
p1655
I1
sS'wildl'
p1656
I1
sS'breath'
p1657
I1
sS'her'
p1658
I264
sS'hes'
p1659
I2
sS'kauffm'
p1660
I2
sS'hey'
p1661
I15
sS'strip'
p1662
I3
sS'hee'
p1663
I1
sS'mindless'
p1664
I20
sS'missy'
p1665
I1
sS'hea'
p1666
I1
sS'hec'
p1667
I1
sS'hel'
p1668
I62
sS'heh'
p1669
I2
sS'bottl'
p1670
I1
sS'smil'
p1671
I3
sS'enough'
p1672
I79
sVconclud
p1673
I9
sS'bundl'
p1674
I1
sS'strikes'
p1675
I1
sS'aperit'
p1676
I1
sS'baffl'
p1677
I2
sS'50-1'
p1678
I1
sS'mich'
p1679
I2
sS'e'
p1680
I5
sS'with'
p1681
I662
sS'gorm'
p1682
I1
sS'mantel'
p1683
I1
sS'ludicr'
p1684
I10
sS'tripl'
p1685
I1
sS'brain-dead'
p1686
I4
sS'vhs'
p1687
I1
sS'coca-col'
p1688
I1
sS'flirt'
p1689
I1
sS'strawberry'
p1690
I1
sS'dirty'
p1691
I8
sS'manuel'
p1692
I1
sS'russ'
p1693
I4
sS'waterpistol'
p1694
I1
sS'pulp'
p1695
I7
sS'misery'
p1696
I5
sS'ac'
p1697
I2
sS'ohh'
p1698
I1
sS'ad'
p1699
I29
sS'ag'
p1700
I24
sS'af'
p1701
I2
sS'ai'
p1702
I1
sS'certain'
p1703
I22
sS'gonn'
p1704
I15
sS'awry'
p1705
I1
sS'deer'
p1706
I5
sS'al'
p1707
I567
sS'deep'
p1708
I15
sS'fellow'
p1709
I2
sS'ap'
p1710
I24
sS'as'
p1711
I614
sS'ar'
p1712
I410
sS'at'
p1713
I462
sS'aw'
p1714
I123
sS'av'
p1715
I3
sS'girlfriend'
p1716
I10
sS'ax'
p1717
I1
sS'proport'
p1718
I2
sS'dawn'
p1719
I5
sS'film'
p1720
I625
sS'hoffm'
p1721
I2
sS'denou'
p1722
I1
sS'again'
p1723
I82
sS'collid'
p1724
I1
sS'2003'
p1725
I4
sS'hybrid'
p1726
I1
sS'non-jewish'
p1727
I1
sS'field'
p1728
I3
sS'astronaut'
p1729
I1
sS'friggin'
p1730
I6
sS'puppy'
p1731
I1
sS'alseep'
p1732
I1
sS'terro'
p1733
I1
sS'shaun'
p1734
I2
sS'brando'
p1735
I3
sS'overton'
p1736
I1
sS'congress'
p1737
I2
sS'mekh'
p1738
I1
sS'a-'
p1739
I1
sS'slant'
p1740
I3
sS'gillig'
p1741
I1
sS'lacklust'
p1742
I3
sS'philisoph'
p1743
I1
sS'midget'
p1744
I1
sS'gayest'
p1745
I1
sS'submarin'
p1746
I1
sS'chris'
p1747
I10
sS'workmanlik'
p1748
I1
sS'mishmash'
p1749
I1
sS'bothersom'
p1750
I1
sS'tricky'
p1751
I2
sS'videotap'
p1752
I3
sS'sacchrin'
p1753
I1
sS'downfal'
p1754
I1
sS'spend'
p1755
I13
sS'keanu'
p1756
I9
sS'mask'
p1757
I8
sS'sewel'
p1758
I1
sS'exlploit'
p1759
I1
sS'groov'
p1760
I2
sS'mast'
p1761
I4
sS'u'
p1762
I7
sS'adam'
p1763
I33
sS'ubergeek'
p1764
I1
sS'escap'
p1765
I6
sS'retch'
p1766
I1
sS'liar'
p1767
I4
sS'forget'
p1768
I15
sVgoa
p1769
I1
sVallergy
p1770
I1
sS'two-hour'
p1771
I1
sS'sunk'
p1772
I3
sS'liam'
p1773
I3
sVsund
p1774
I2
sS'unansw'
p1775
I6
sS'rewrit'
p1776
I1
sS'tv'
p1777
I38
sS'mindless--anchorman'
p1778
I1
sS'incap'
p1779
I1
sS'anti-semitic'
p1780
I1
sS'skit'
p1781
I1
sS'tain'
p1782
I1
sS'to'
p1783
I2409
sS'tail'
p1784
I4
sS'th'
p1785
I2
sS'scratch'
p1786
I1
sS'pilot'
p1787
I9
sS'cgi'
p1788
I9
sS'introduc'
p1789
I8
sS'kief'
p1790
I1
sS'godfath'
p1791
I2
sS'straightforward'
p1792
I1
sS'fals'
p1793
I8
sVpsychy
p1794
I1
sS'bellybutton'
p1795
I1
sS'unhatch'
p1796
I1
sS'falt'
p1797
I1
sS'util'
p1798
I2
sS'candid'
p1799
I2
sS'diary'
p1800
I1
sS'dean'
p1801
I2
sS'ratings-'
p1802
I1
sS'strang'
p1803
I1
sS'unalt'
p1804
I1
sS'wsa'
p1805
I1
sS'`'
p1806
I1
sS'sant'
p1807
I1
sS'hyd'
p1808
I1
sS'broderick'
p1809
I1
sS'althought'
p1810
I1
sS't2'
p1811
I4
sS't3'
p1812
I3
sS't1'
p1813
I1
sS'hyp'
p1814
I29
sS'pesky'
p1815
I1
sS'sand'
p1816
I1
sS'harry'
p1817
I11
sS'laur'
p1818
I2
sS'chinees'
p1819
I1
sS'wealthiest'
p1820
I1
sS'inauth'
p1821
I1
sS'synd'
p1822
I1
sS'christ"'
p1823
I1
sS'hour-'
p1824
I1
sS'past'
p1825
I18
sS'zero'
p1826
I16
sS'disapoint'
p1827
I7
sS'pass'
p1828
I25
sVsynt
p1829
I1
sS'style-over-substanc'
p1830
I1
sS'excit'
p1831
I24
sS'90s'
p1832
I1
sS'stood'
p1833
I3
sS'interset'
p1834
I1
sS'richard'
p1835
I12
sS'clock'
p1836
I3
sVabl
p1837
I29
sS'beatle-wannabes'
p1838
I1
sS'abs'
p1839
I3
sS'diaz'
p1840
I5
sS'undevelop'
p1841
I2
sS'method'
p1842
I1
sS'contrast'
p1843
I2
sS'hasn'
p1844
I7
sS'2bux'
p1845
I1
sS'portrayl'
p1846
I1
sS'threads'
p1847
I3
sS'drive-in'
p1848
I2
sS'fred'
p1849
I3
sS'stepford'
p1850
I2
sS'valu'
p1851
I18
sS'diffr'
p1852
I1
sS'search'
p1853
I2
sS'14'
p1854
I1
sS'pict'
p1855
I39
sS'cock'
p1856
I1
sS'50s'
p1857
I1
sS'airport'
p1858
I1
sS'pick'
p1859
I18
sS'narrow'
p1860
I1
sS'vic'
p1861
I3
sS'wizard'
p1862
I1
sS'depart'
p1863
I1
sS'vig'
p1864
I2
sS'pullm'
p1865
I1
sS'primit'
p1866
I1
sS'vin'
p1867
I7
sS'vio'
p1868
I1
sS'vil'
p1869
I6
sS'vir'
p1870
I3
sS'vis'
p1871
I12
sS'viv'
p1872
I1
sS'thought'
p1873
I129
sS'gratuit'
p1874
I9
sS'vix'
p1875
I1
sS'gosh'
p1876
I1
sS'select'
p1877
I4
sS'chauc'
p1878
I1
sS'inpenet'
p1879
I1
sVdistinct
p1880
I5
sS'knit'
p1881
I1
sS'deaniac'
p1882
I1
sS'sub-par'
p1883
I2
sS'tackl'
p1884
I2
sS'two'
p1885
I104
sS'mort'
p1886
I1
sS'pearl'
p1887
I10
sVseny
p1888
I2
sS'morn'
p1889
I3
sS'kniv'
p1890
I2
sS'6'
p1891
I7
sS'tacky'
p1892
I2
sS'teeny-tiny'
p1893
I1
sS'morg'
p1894
I3
sS'cat-and-mouse'
p1895
I1
sS'teen'
p1896
I41
sS'fast-forwarding'
p1897
I1
sS'barbarino'
p1898
I2
sS'desir'
p1899
I7
sS'chucky'
p1900
I6
sVhotty
p1901
I3
sS'company'
p1902
I11
sS'videoclip'
p1903
I1
sS'moviehalloween'
p1904
I1
sS'doof'
p1905
I1
sS'chuckl'
p1906
I4
sS'sens'
p1907
I59
sS'doom'
p1908
I3
sS'cack'
p1909
I2
sS'town'
p1910
I8
sS'sucky'
p1911
I1
sS'hous'
p1912
I24
sS'dep'
p1913
I11
sS'phillip'
p1914
I1
sS'lind'
p1915
I1
sS'des'
p1916
I1
sS'det'
p1917
I1
sS'deu'
p1918
I1
sS'dev'
p1919
I4
sS'vorh'
p1920
I3
sS'remain'
p1921
I4
sS'hesit'
p1922
I1
sS'del'
p1923
I12
sS'dem'
p1924
I5
sS'den'
p1925
I7
sS'learn'
p1926
I15
sS'abandon'
p1927
I2
sS'dea'
p1928
I26
sS'deb'
p1929
I1
sS'dec'
p1930
I17
sS'ded'
p1931
I1
sS'shrewed'
p1932
I1
sS'def'
p1933
I2
sS'deg'
p1934
I2
sS'explod'
p1935
I7
sS'overst'
p1936
I1
sS'shark'
p1937
I4
sS'scal'
p1938
I5
sS'hect'
p1939
I3
sS'challeng'
p1940
I3
sS'kripk'
p1941
I1
sS'pessim'
p1942
I1
sS'maguir'
p1943
I1
sS'"remake"'
p1944
I2
sS'masculin'
p1945
I1
sS'gallon'
p1946
I1
sS'scar'
p1947
I32
sS'dress'
p1948
I9
sS'scat'
p1949
I1
sS'eeevil'
p1950
I1
sS'!'
p1951
I1515
sS'stil'
p1952
I102
sS'stim'
p1953
I2
sS'clint'
p1954
I1
sS'awkward'
p1955
I2
sS'needy'
p1956
I1
sS'ryd'
p1957
I3
sS'comfort'
p1958
I5
sS'hugh'
p1959
I1
sS'teeny-bopper'
p1960
I1
sS'amistad'
p1961
I1
sS'everyday'
p1962
I1
sS'assinin'
p1963
I2
sS'boooo'
p1964
I2
sS'becuas'
p1965
I1
sS'opt'
p1966
I2
sS'simpl'
p1967
I22
sS'needl'
p1968
I1
sS'aplenty'
p1969
I1
sS'rostr'
p1970
I1
sS'raunch'
p1971
I1
sS'"never'
p1972
I1
sS'slow-mo'
p1973
I2
sVassocy
p1974
I7
sS'prepost'
p1975
I3
sS'soundtrack'
p1976
I11
sS'mangl'
p1977
I1
sVculp
p1978
I1
sS'blood'
p1979
I26
sS'bloom'
p1980
I1
sS'bleah'
p1981
I1
sS'pau'
p1982
I1
sS'mous'
p1983
I1
sVcircumst
p1984
I4
sS'imagery'
p1985
I1
sS'coat'
p1986
I2
sS'wobbl'
p1987
I1
sS'electron'
p1988
I1
sS'dragon'
p1989
I1
sS'coal'
p1990
I1
sS'sect'
p1991
I1
sS'ensembl'
p1992
I2
sS'award-worthy'
p1993
I1
sS'gangster-type'
p1994
I1
sS'biik'
p1995
I1
sS'astair'
p1996
I1
sS'krypt'
p1997
I1
sS're-enforces'
p1998
I1
sS'pant'
p1999
I5
sS'ikwydl'
p2000
I1
sS'ita'
p2001
I3
sS'slaught'
p2002
I2
sS'sssstttuuupppiiiddd'
p2003
I1
sS'through'
p2004
I102
sS'brim'
p2005
I3
sS'pand'
p2006
I2
sS'brib'
p2007
I1
sS'diast'
p2008
I1
sS'brid'
p2009
I3
sS'24'
p2010
I1
sS'25'
p2011
I7
sS'26'
p2012
I1
sS're-enactors'
p2013
I1
sS'21'
p2014
I2
sS'22'
p2015
I1
sS'litl'
p2016
I1
sS'scooby-doo'
p2017
I1
sS'kedwa'
p2018
I1
sS'28'
p2019
I1
sS'bosom'
p2020
I2
sS'handheld'
p2021
I1
sS'whistl'
p2022
I1
sS'poor-me-cinderella'
p2023
I1
sS'nifty'
p2024
I2
sS'headache-inducing'
p2025
I1
sS'ottm'
p2026
I1
sS'eas'
p2027
I1
sS'goof'
p2028
I2
sS'good'
p2029
I381
sS'melodram'
p2030
I3
sS'bought'
p2031
I5
sS'in-route'
p2032
I1
sS'rosalind'
p2033
I1
sS'ye-ha'
p2034
I1
sS'goos'
p2035
I1
sS'time----graphic'
p2036
I1
sS'propost'
p2037
I1
sS'detach'
p2038
I1
sS'complain'
p2039
I4
sS'cleopatr'
p2040
I1
sS'limpet'
p2041
I1
sS'mystery'
p2042
I9
sS'portm'
p2043
I2
sS'permanent-party'
p2044
I1
sS'fantasy'
p2045
I10
sS'wallac'
p2046
I1
sS'instruct'
p2047
I1
sS'electrocut'
p2048
I1
sS'spy'
p2049
I4
sS'achiev'
p2050
I2
sS'goofy'
p2051
I1
sS'best-acting'
p2052
I1
sS'found'
p2053
I61
sS'dimwit'
p2054
I1
sS'joel'
p2055
I1
sS'idealog'
p2056
I1
sS'embarass'
p2057
I8
sS'hark'
p2058
I1
sS'transform'
p2059
I2
sVsomnelesc
p2060
I1
sS'meaningless'
p2061
I5
sS'energy'
p2062
I5
sS'hard'
p2063
I60
sS'harb'
p2064
I7
sS'clockwork'
p2065
I4
sS'connect'
p2066
I7
sS'jingo'
p2067
I1
sS'effin'
p2068
I1
sS'fastforward'
p2069
I1
sS'bluet'
p2070
I1
sS'superb'
p2071
I1
sS'lipstick'
p2072
I1
sS'sutherland'
p2073
I3
sS'research'
p2074
I2
sS'bubbl'
p2075
I3
sS'yawn-inducing'
p2076
I1
sS'prinz'
p2077
I1
sVprint
p2078
I3
sVconvolv
p2079
I3
sVviol
p2080
I59
sS'quicky'
p2081
I1
sS'kubr'
p2082
I1
sS'dogm'
p2083
I1
sS'believ'
p2084
I128
sS'airwav'
p2085
I1
sS'albatross'
p2086
I1
sS'misogyny'
p2087
I1
sS'wheel'
p2088
I1
sS'non-sense'
p2089
I1
sS'prophet'
p2090
I1
sS'sitcom'
p2091
I3
sS'samura'
p2092
I1
sS'pos'
p2093
I6
sS'w'
p2094
I7
sS'uber-geek'
p2095
I1
sS'propogand'
p2096
I3
sS'rated-r'
p2097
I1
sS'clump'
p2098
I1
sS'tedi'
p2099
I1
sS'seinfeld'
p2100
I3
sS'dont'
p2101
I45
sS'incomprehs'
p2102
I1
sS'purport'
p2103
I2
sS'god-awful'
p2104
I5
sS'tow'
p2105
I1
sVtedy
p2106
I10
sS'pop'
p2107
I16
sS'guar'
p2108
I1
sS'campground'
p2109
I1
sS'unimagin'
p2110
I6
sS'jes'
p2111
I22
sS'guess'
p2112
I33
sS'jew'
p2113
I11
sS'jet'
p2114
I10
sS'glov'
p2115
I4
sS'cloying--most'
p2116
I1
sS'5th'
p2117
I1
sS'bay'
p2118
I3
sS'threatening'
p2119
I1
sS'least'
p2120
I79
sS'paint'
p2121
I9
sS'180'
p2122
I1
sS'zealot'
p2123
I1
sS'jed'
p2124
I1
sS'ze'
p2125
I2
sS'illeg'
p2126
I4
sS'dumbass'
p2127
I1
sS'jen'
p2128
I16
sS'overact'
p2129
I3
sS'codswallop'
p2130
I1
sS'park'
p2131
I14
sS'jar-j'
p2132
I1
sS'schinder'
p2133
I1
sS'glycerin'
p2134
I1
sS'part'
p2135
I116
sS'chomp'
p2136
I1
sS'consult'
p2137
I1
sS'reliev'
p2138
I3
sS'quasi-homosexual'
p2139
I1
sS'aeon'
p2140
I1
sS'b'
p2141
I10
sS'child-like'
p2142
I1
sS'reun'
p2143
I1
sS'"facts"'
p2144
I1
sS'art-house'
p2145
I1
sS'ranch'
p2146
I1
sS'comput'
p2147
I13
sS'blak'
p2148
I1
sS'loudmou'
p2149
I1
sS'gia'
p2150
I1
sS'nothin'
p2151
I1
sS'blond'
p2152
I9
sS'shortchang'
p2153
I1
sS'requisit'
p2154
I1
sS'mountain'
p2155
I6
sS'built'
p2156
I1
sS'grusom'
p2157
I1
sS'self'
p2158
I7
sS'couch'
p2159
I2
sS'also'
p2160
I88
sS'exposit'
p2161
I1
sS'butt-head'
p2162
I1
sS'build'
p2163
I7
sS'menopaus'
p2164
I1
sS'prbably'
p2165
I1
sS'coff'
p2166
I1
sS'play'
p2167
I93
sS'numbingly-idiotic'
p2168
I1
sS'distribut'
p2169
I1
sS'dayton'
p2170
I1
sS'plat'
p2171
I1
sS'most'
p2172
I188
sS'brooklyn'
p2173
I1
sS'kaufm'
p2174
I4
sS'charm'
p2175
I7
sS'plan'
p2176
I21
sS'rosann'
p2177
I1
sS'plac'
p2178
I37
sS'polec'
p2179
I1
sS'rushm'
p2180
I1
sS'wisdom'
p2181
I1
sS'redem'
p2182
I1
sS'kc'
p2183
I1
sS'terd'
p2184
I1
sS'chicago'
p2185
I1
sS'ko'
p2186
I1
sS'pueril'
p2187
I2
sS'repart'
p2188
I1
sS'unfocus'
p2189
I2
sS'ext'
p2190
I3
sS'comdey'
p2191
I1
sS'sreenplay'
p2192
I1
sS'thank'
p2193
I34
sS'barrel'
p2194
I3
sS'reincarn'
p2195
I2
sS'ugh'
p2196
I8
sS'golf'
p2197
I2
sS'gold'
p2198
I6
sS'witherspoon'
p2199
I3
sS'dicaprio'
p2200
I4
sS'smithson'
p2201
I2
sS'strangeland'
p2202
I1
sS'reput'
p2203
I1
sS'find'
p2204
I76
sS'fing'
p2205
I3
sS'impact'
p2206
I1
sS'giant'
p2207
I4
sS'disappoin'
p2208
I1
sS'geophys'
p2209
I1
sS'ruin'
p2210
I31
sS'poppin'
p2211
I2
sS'ebert'
p2212
I3
sS'worthy'
p2213
I6
sS'indust'
p2214
I1
sS'erect'
p2215
I2
sS'military-type'
p2216
I1
sS'fastbal'
p2217
I1
sS'condon'
p2218
I1
sS'condom'
p2219
I1
sS'8'
p2220
I11
sVdeliry
p2221
I1
sS'hog-tie'
p2222
I1
sS'unus'
p2223
I2
sS'silv'
p2224
I4
sS'"make'
p2225
I1
sS'ferrel'
p2226
I4
sS'express'
p2227
I9
sS'breast'
p2228
I5
sS'scissorhand'
p2229
I1
sVcompass
p2230
I2
sS'damnit'
p2231
I2
sS'dustin'
p2232
I2
sVenemy
p2233
I1
sS'uncomfort'
p2234
I1
sS'cru'
p2235
I18
sS'indee'
p2236
I3
sS'cry'
p2237
I16
sS'jonath'
p2238
I2
sS'bird'
p2239
I1
sS'common'
p2240
I9
sS'cre'
p2241
I47
sS'gospel'
p2242
I2
sS'cri'
p2243
I6
sS'rivet'
p2244
I1
sS'sew'
p2245
I2
sS'sev'
p2246
I25
sS'set'
p2247
I43
sS'ser'
p2248
I2
sS'seq'
p2249
I5
sS'overwhelm'
p2250
I1
sS'wros'
p2251
I1
sS'wrot'
p2252
I12
sS'sex'
p2253
I64
sS'see'
p2254
I375
sVsed
p2255
I1
sS'sec'
p2256
I2
sS'sea'
p2257
I2
sS'sen'
p2258
I1
sS'sem'
p2259
I1
sS'sel'
p2260
I18
sVvint
p2261
I1
sS'camoufl'
p2262
I2
sS'#'
p2263
I10
sS'expert'
p2264
I2
sS'shenanig'
p2265
I1
sS'debas'
p2266
I1
sS'baldwin'
p2267
I1
sS'someth'
p2268
I98
sVexpery
p2269
I18
sS'elizabe'
p2270
I2
sS'brosn'
p2271
I5
sS'debac'
p2272
I1
sVverby
p2273
I1
sS'cutout'
p2274
I1
sS'cheapquel'
p2275
I1
sS'altern'
p2276
I1
sS'downb'
p2277
I1
sS'freebird'
p2278
I1
sS'anjelic'
p2279
I1
sS'atwood'
p2280
I1
sS'self-centered'
p2281
I3
sS'1990ies'
p2282
I1
sS'suvar'
p2283
I2
sVapprecy
p2284
I7
sS'infam'
p2285
I1
sS'allarm'
p2286
I1
sS'shamal'
p2287
I3
sS'arond'
p2288
I1
sS'marilyn'
p2289
I1
sS'popul'
p2290
I17
sS'last'
p2291
I51
sS'thou'
p2292
I1
sS'thow'
p2293
I1
sS'parad'
p2294
I2
sS'fellin'
p2295
I1
sS'thos'
p2296
I79
sS'foreign'
p2297
I6
sS'alot'
p2298
I17
sS'lash'
p2299
I2
sS'poverty'
p2300
I1
sS'dumbsh'
p2301
I1
sS'whold'
p2302
I1
sS'load'
p2303
I11
sS'shal'
p2304
I1
sS'mckennitt'
p2305
I1
sS'episod'
p2306
I8
sS'elliot'
p2307
I1
sS'point'
p2308
I70
sS'loan'
p2309
I1
sS'rad'
p2310
I1
sS'schmuks'
p2311
I1
sS'trolog'
p2312
I1
sS'simply'
p2313
I43
sS'headachey'
p2314
I1
sS'church'
p2315
I1
sS'far-fetched'
p2316
I1
sS'throughout'
p2317
I18
sS'antartic'
p2318
I1
sS'belt'
p2319
I1
sS'worthless'
p2320
I14
sS'devil'
p2321
I11
sS'smoth'
p2322
I1
sS'perpetu'
p2323
I2
sS'cartridg'
p2324
I1
sS'secret'
p2325
I6
sS'extravaganz'
p2326
I2
sS'buffonery'
p2327
I1
sS'furtherm'
p2328
I2
sS'kathy'
p2329
I3
sS'stoopid'
p2330
I1
sS'entertaining-'
p2331
I1
sS'gentil'
p2332
I2
sS're-hashed'
p2333
I1
sS'gay'
p2334
I12
sS'gav'
p2335
I37
sS'cyborg'
p2336
I1
sS'gat'
p2337
I1
sS'gas'
p2338
I3
sS'remark'
p2339
I5
sS'gap'
p2340
I1
sS'fund'
p2341
I4
sS'gam'
p2342
I26
sVgal
p2343
I3
sS'understand'
p2344
I39
sS'whitney'
p2345
I1
sS'gag'
p2346
I12
sS'repetit'
p2347
I1
sS'educ'
p2348
I9
sS'uncal'
p2349
I1
sS'desensit'
p2350
I1
sS'milit'
p2351
I7
sS'fut'
p2352
I12
sS'hitchcock'
p2353
I4
sS'solid'
p2354
I3
sS'errol'
p2355
I1
sS'straight'
p2356
I10
sS'ass-crack'
p2357
I1
sS'grainy'
p2358
I1
sS'holocaust'
p2359
I5
sS'crutch'
p2360
I3
sS'overstyl'
p2361
I1
sS'cagey'
p2362
I1
sS'paintbal'
p2363
I1
sS'fun'
p2364
I43
sS'ful'
p2365
I20
sS'robin'
p2366
I5
sS'real'
p2367
I409
sS'pound'
p2368
I2
sS'engl'
p2369
I6
sS'avtak'
p2370
I1
sS'voc'
p2371
I1
sS'moth'
p2372
I17
sS'astupid'
p2373
I1
sS'invisbl'
p2374
I1
sS'brain-deads'
p2375
I1
sS'foul-mouthed'
p2376
I1
sS'duckl'
p2377
I1
sS'itself'
p2378
I22
sS'mott'
p2379
I1
sS'routin'
p2380
I3
sS'voy'
p2381
I1
sS'antithes'
p2382
I1
sS'funny'
p2383
I203
sS'marqu'
p2384
I2
sS'earn'
p2385
I6
sS'would-be'
p2386
I2
sS'subsid'
p2387
I1
sS'incarn'
p2388
I2
sS'caract'
p2389
I1
sS'rutg'
p2390
I1
sS'good--case'
p2391
I1
sS'eww'
p2392
I1
sS'stung'
p2393
I1
sS'neutron'
p2394
I1
sS'caes'
p2395
I1
sS'sixth-rate'
p2396
I1
sS'strips'
p2397
I1
sS'yesterday'
p2398
I1
sS'gentler-kind'
p2399
I1
sS'walmart'
p2400
I1
sS'bulshit'
p2401
I1
sS'rabid'
p2402
I2
sS'chang'
p2403
I16
sS'klaptrap'
p2404
I1
sVexpend
p2405
I2
sS'task'
p2406
I2
sS'barry'
p2407
I2
sVampl
p2408
I2
sS'earnest'
p2409
I1
sS'knowel'
p2410
I1
sS'kne'
p2411
I1
sS'spent'
p2412
I22
sS'morrow'
p2413
I1
sS'1964'
p2414
I2
sS'body'
p2415
I14
sS'expens'
p2416
I2
sS'elev'
p2417
I2
sS'werewolv'
p2418
I1
sS'landmark'
p2419
I2
sS'nolt'
p2420
I1
sS'tast'
p2421
I18
sS'4hrs'
p2422
I1
sS'magnol'
p2423
I1
sS'darn'
p2424
I4
sS'nc-17'
p2425
I2
sS'above--just'
p2426
I1
sS'certaint'
p2427
I2
sS'glitz'
p2428
I1
sS'mol'
p2429
I1
sS'watchin'
p2430
I1
sS'snow'
p2431
I1
sS'1962'
p2432
I1
sS'libr'
p2433
I1
sS'belush'
p2434
I3
sS'monu'
p2435
I3
sS'forrest'
p2436
I2
sS'jumpsuit'
p2437
I1
sS'cut'
p2438
I33
sS'cur'
p2439
I9
sS'persuad'
p2440
I1
sS'reap'
p2441
I1
sS'cuz'
p2442
I2
sS'bonham-carter'
p2443
I1
sS'cue'
p2444
I2
sS'improb'
p2445
I1
sS'bravery'
p2446
I1
sS'courtney'
p2447
I1
sVeery
p2448
I2
sS'unlik'
p2449
I12
sS'rate-it'
p2450
I1
sS'app'
p2451
I24
sS'calisth'
p2452
I1
sS'frenet'
p2453
I1
sS'apathet'
p2454
I1
sS'bil'
p2455
I25
sS'comerc'
p2456
I1
sS'pg-rated'
p2457
I1
sS'big'
p2458
I90
sS'rebound'
p2459
I1
sS'hayak'
p2460
I1
sS'puh-leeze'
p2461
I1
sS'folk'
p2462
I9
sS'bia'
p2463
I1
sS'transmit'
p2464
I1
sS'redeem'
p2465
I23
sS'quest'
p2466
I20
sS'bit'
p2467
I43
sS'blech'
p2468
I2
sS'bir'
p2469
I3
sS'dorothy'
p2470
I1
sS'knock'
p2471
I11
sS'moriah'
p2472
I1
sS'd'
p2473
I73
sS'flux'
p2474
I1
sS'continuo'
p2475
I1
sS'flut'
p2476
I1
sS'sequil'
p2477
I1
sS'encount'
p2478
I2
sS'gethsem'
p2479
I1
sS'door'
p2480
I3
sS'acknowledg'
p2481
I1
sS'duck'
p2482
I1
sS'sighn'
p2483
I1
sS'back'
p2484
I95
sS'brend'
p2485
I1
sS'b-o-r-i-n-g'
p2486
I1
sS're-telling'
p2487
I1
sS'tyo'
p2488
I1
sS'palm'
p2489
I2
sS'sight'
p2490
I3
sS'infest'
p2491
I1
sS'sheesh'
p2492
I1
sS'mean-sprited'
p2493
I1
sS'pet'
p2494
I17
sS'quot'
p2495
I1
sS'pep'
p2496
I3
sS'per'
p2497
I2
sVbehavy
p2498
I5
sS'pel'
p2499
I1
sS'recognit'
p2500
I3
sS'pen'
p2501
I9
sS'larg'
p2502
I11
sS'whodunit'
p2503
I1
sS'lard'
p2504
I1
sS'pee'
p2505
I1
sS'micallef'
p2506
I1
sS'reproduc'
p2507
I1
sS'pec'
p2508
I1
sS'machin'
p2509
I9
sS'gremlin'
p2510
I1
sS'unedit'
p2511
I1
sS'camerawork'
p2512
I3
sS'reddest'
p2513
I1
sS'requiem'
p2514
I1
sS'grotesqu'
p2515
I4
sS'oew'
p2516
I1
sS'crav'
p2517
I2
sS'umcomfort'
p2518
I1
sS'pietro'
p2519
I1
sS'bw'
p2520
I5
sS'religeon'
p2521
I1
sS'bs'
p2522
I2
sS'barbar'
p2523
I1
sS'from'
p2524
I313
sS'carol'
p2525
I1
sS'polansk'
p2526
I1
sS'fec'
p2527
I1
sS'juvenil'
p2528
I8
sS'loathsom'
p2529
I2
sS'mario'
p2530
I3
sS'3-rd'
p2531
I1
sS'connery'
p2532
I4
sS'babbl'
p2533
I1
sS'drama'
p2534
I1
sS'fairyt'
p2535
I1
sS'unintintiona'
p2536
I1
sS'blechh'
p2537
I1
sVbrucy
p2538
I1
sS'gambit'
p2539
I1
sS'goodm'
p2540
I1
sS'mirand'
p2541
I1
sS'sould'
p2542
I1
sS'hudson'
p2543
I5
sS'clinton'
p2544
I4
sS'colorado'
p2545
I1
sS'irrit'
p2546
I9
sVatrocy
p2547
I11
sS'snooz'
p2548
I2
sS'into'
p2549
I128
sS'undersc'
p2550
I1
sS'frog'
p2551
I3
sS'fans--he'
p2552
I1
sS'lesson'
p2553
I5
sS'cho'
p2554
I4
sS'underst'
p2555
I2
sS'rammstein'
p2556
I1
sS'characht'
p2557
I1
sS'carzy'
p2558
I1
sS'span'
p2559
I2
sS'zig'
p2560
I1
sS'kathleen'
p2561
I1
sS'spac'
p2562
I32
sS'whatso'
p2563
I1
sS'doll'
p2564
I12
sS'gross-out'
p2565
I5
sS'custom'
p2566
I1
sVsubst
p2567
I7
sS'froz'
p2568
I2
sS'thriller'
p2569
I6
sS'suit'
p2570
I11
sS'spar'
p2571
I3
sS'coyot'
p2572
I1
sS'implaus'
p2573
I2
sVsocy
p2574
I6
sVexcruty
p2575
I1
sVmocu
p2576
I1
sS'dismin'
p2577
I1
sVjacky
p2578
I11
sVreservy
p2579
I1
sS'link'
p2580
I2
sS'goosebump'
p2581
I1
sS'jackm'
p2582
I1
sS'execr'
p2583
I1
sS'cia'
p2584
I1
sS'humorless'
p2585
I1
sS'cig'
p2586
I2
sS'cid'
p2587
I1
sS'ut'
p2588
I26
sS'prelud'
p2589
I2
sS'up'
p2590
I233
sS'us'
p2591
I176
sS'ur'
p2592
I1
sS'um'
p2593
I3
sS'un'
p2594
I9
sS'civ'
p2595
I2
sS'horrorfy'
p2596
I1
sS'leviath'
p2597
I1
sS'ug'
p2598
I17
sS'jumbl'
p2599
I2
sS'well-known'
p2600
I1
sS'cathol'
p2601
I5
sS'curs'
p2602
I3
sS'geesh'
p2603
I1
sS'chan'
p2604
I8
sS'haunt'
p2605
I5
sS'chal'
p2606
I1
sVcury
p2607
I3
sS'transl'
p2608
I8
sS'chas'
p2609
I7
sS'z-z-z-z-z'
p2610
I1
sS'chat'
p2611
I1
sS'definet'
p2612
I1
sS'doe'
p2613
I86
sS'phantom'
p2614
I5
sS'%'
p2615
I9
sS'crypt'
p2616
I1
sS'anywh'
p2617
I6
sS'under-the-top'
p2618
I1
sS'kirk'
p2619
I2
sS'trait'
p2620
I2
sS'retract'
p2621
I1
sS'categ'
p2622
I5
sS'leng'
p2623
I3
sS'lend'
p2624
I2
sS'sideb'
p2625
I1
sS'lens'
p2626
I1
sS'whatdehay'
p2627
I1
sS'sleazy-looking'
p2628
I1
sS'deserv'
p2629
I32
sS'ago'
p2630
I17
sS'thar'
p2631
I1
sS'land'
p2632
I3
sS'shrewd'
p2633
I1
sS'antagon'
p2634
I4
sS'bergm'
p2635
I1
sS'twaddl'
p2636
I1
sS'scream'
p2637
I26
sS'2002'
p2638
I1
sS'chick-flick'
p2639
I2
sS'2000'
p2640
I2
sS'2001'
p2641
I5
sS'brea'
p2642
I1
sS'worn'
p2643
I1
sS'2004'
p2644
I2
sS'fresh'
p2645
I3
sS'film--like'
p2646
I1
sS'hello'
p2647
I3
sS'jason'
p2648
I34
sS'fitch'
p2649
I1
sS'probl'
p2650
I1
sS'mool'
p2651
I1
sS'endeav'
p2652
I1
sS'straightlaced'
p2653
I1
sS'freakin'
p2654
I5
sS'prim'
p2655
I5
sS'flashback'
p2656
I1
sS'unfulfil'
p2657
I1
sVcheapy
p2658
I1
sS'sensit'
p2659
I3
sS'bixby'
p2660
I1
sS'grass'
p2661
I1
sS'young'
p2662
I23
sS'send'
p2663
I10
sS'cheapo'
p2664
I1
sS'chapt'
p2665
I1
sS'becam'
p2666
I8
sS'outd'
p2667
I2
sS'maryland'
p2668
I3
sVsent
p2669
I6
sS'boatload'
p2670
I1
sS'obstac'
p2671
I2
sS'anticlimact'
p2672
I1
sS'desserv'
p2673
I1
sS'well-done'
p2674
I2
sS'outh'
p2675
I1
sS'lopez'
p2676
I6
sS'volum'
p2677
I1
sS'disast'
p2678
I12
sS'manhatton'
p2679
I1
sS'distates'
p2680
I1
sS'mek'
p2681
I1
sS'recip'
p2682
I1
sS'doggy'
p2683
I1
sS'recit'
p2684
I2
sS'knight'
p2685
I2
sS'marry'
p2686
I6
sS'shock'
p2687
I25
sS'tre'
p2688
I17
sVostentaty
p2689
I1
sS'martha--they'
p2690
I1
sS'try'
p2691
I88
sS'mouseket'
p2692
I1
sS'that4hrs'
p2693
I1
sS'choppy'
p2694
I1
sS'leonardo'
p2695
I2
sS'rack'
p2696
I1
sS'ta-t'
p2697
I1
sS'joey'
p2698
I1
sVody
p2699
I4
sS'clay-animated'
p2700
I1
sS'fortun'
p2701
I3
sS'crow'
p2702
I2
sS'crop'
p2703
I2
sS'cron'
p2704
I1
sS'crook'
p2705
I2
sVimply
p2706
I6
sS'video'
p2707
I33
sS'odo'
p2708
I1
sS'pro-castro'
p2709
I1
sVwhoopty
p2710
I1
sS'minuet'
p2711
I1
sS'conspir'
p2712
I2
sS'cinematograpy'
p2713
I1
sVresembl
p2714
I3
sS'fat'
p2715
I23
sS'furth'
p2716
I9
sS'philand'
p2717
I1
sS'access'
p2718
I1
sS'indian'
p2719
I3
sS'lesser-talented'
p2720
I1
sS'raunch-fest'
p2721
I1
sS'dissapoint'
p2722
I16
sS'ahhhhh'
p2723
I1
sS'3d'
p2724
I2
sS'scenery'
p2725
I3
sS'klingon'
p2726
I1
sS'led'
p2727
I3
sS'lee'
p2728
I6
sS'irreplacealbl'
p2729
I1
sS'w-o-r-s-e'
p2730
I1
sVsint
p2731
I52
sS'embattl'
p2732
I1
sS'punch'
p2733
I3
sS'leo'
p2734
I7
sS'avereg'
p2735
I1
sS'otherw'
p2736
I26
sS'let'
p2737
I76
sS'sink'
p2738
I10
sS'lew'
p2739
I1
sS'second-rate'
p2740
I1
sS'sing'
p2741
I25
sS'fifteen'
p2742
I6
sS'over-analyzers'
p2743
I1
sS'mindset'
p2744
I2
sS'mawk'
p2745
I1
sS'39'
p2746
I1
sS'greas'
p2747
I4
sVconceiv
p2748
I22
sS'30'
p2749
I18
sS'technolog'
p2750
I2
sS'36'
p2751
I1
sS'35'
p2752
I1
sS'fetch'
p2753
I2
sS'resurrect'
p2754
I1
sS'insulin'
p2755
I1
sS'climact'
p2756
I1
sS'popcorn'
p2757
I4
sS'climb'
p2758
I3
sS'kinsm'
p2759
I2
sS'explain'
p2760
I20
sS'unquest'
p2761
I1
sS'limp'
p2762
I3
sS'emot'
p2763
I17
sS'sgt'
p2764
I1
sS'crosby'
p2765
I2
sS'hrs'
p2766
I1
sS'dumbest'
p2767
I6
sS'limb'
p2768
I1
sS'cheesy-ass'
p2769
I1
sS'sermon'
p2770
I1
sS'bent'
p2771
I1
sS'wardrob'
p2772
I1
sS'zit'
p2773
I1
sS'che'
p2774
I12
sS'commun'
p2775
I4
sS'outway'
p2776
I1
sS'doubl'
p2777
I5
sS'dehum'
p2778
I1
sS'nobel'
p2779
I1
sS'websit'
p2780
I3
sS'process'
p2781
I8
sS'mamet'
p2782
I1
sS'doubt'
p2783
I16
sS'cut-out'
p2784
I1
sS'overbear'
p2785
I1
sS'zil'
p2786
I1
sS'zim'
p2787
I1
sS'vinny'
p2788
I2
sS'deicid'
p2789
I1
sS'pencil'
p2790
I1
sS'shipwreck'
p2791
I1
sS'infamy'
p2792
I1
sS'on'
p2793
I1634
sS'unplaus'
p2794
I1
sS'om'
p2795
I3
sS'precurs'
p2796
I1
sS'trail'
p2797
I19
sS'soooooooo'
p2798
I2
sS'train'
p2799
I11
sS'senario'
p2800
I1
sS'baby'
p2801
I11
sS'wolv'
p2802
I2
sS'courtroom'
p2803
I1
sS'account'
p2804
I2
sS'alik'
p2805
I2
sS'britney'
p2806
I3
sS'f'
p2807
I19
sS'gabriel'
p2808
I1
sS'alic'
p2809
I1
sS'aperson'
p2810
I1
sS'pour'
p2811
I1
sS'phob'
p2812
I1
sS'thin'
p2813
I10
sS'ric'
p2814
I4
sS'frightn'
p2815
I1
sS'didnt'
p2816
I15
sS'coffin'
p2817
I1
sS'phon'
p2818
I1
sS'tarantino'
p2819
I10
sVprecy
p2820
I2
sS'jees'
p2821
I1
sS'envolv'
p2822
I1
sS'slic'
p2823
I5
sS'contempl'
p2824
I3
sS'geez'
p2825
I2
sS'carwreck'
p2826
I1
sS'lock'
p2827
I4
sS'yu-gi-oh'
p2828
I2
sS'rodg'
p2829
I1
sS'high'
p2830
I67
sS'yurelf'
p2831
I1
sS'slit'
p2832
I2
sS'downhil'
p2833
I2
sS'slip'
p2834
I3
sS'blvd'
p2835
I1
sS'onlin'
p2836
I1
sS'crimin'
p2837
I2
sS'martyr'
p2838
I1
sS'contempt'
p2839
I1
sS'bonet'
p2840
I1
sS'lamb'
p2841
I2
sS'chop'
p2842
I2
sS'surfac'
p2843
I1
sS'"b"'
p2844
I1
sS'anakin'
p2845
I2
sS'spinoff'
p2846
I1
sS'gump'
p2847
I1
sS'supstit'
p2848
I1
sS'sensless'
p2849
I1
sS'whatever-it-was'
p2850
I2
sS'aft'
p2851
I131
sS'palet'
p2852
I1
sS'comedy'
p2853
I102
sS'espec'
p2854
I31
sS'afr'
p2855
I2
sS'stand'
p2856
I21
sS'uhhh'
p2857
I1
sS'y'
p2858
I1
sS'unentertain'
p2859
I3
sS'fram'
p2860
I3
sS'act'
p2861
I630
sS'tied'
p2862
I2
sS'nonex'
p2863
I1
sS'exhag'
p2864
I1
sS'inst'
p2865
I8
sS'uuuuuuugggghhhhhh'
p2866
I1
sS'redund'
p2867
I2
sS'hawk'
p2868
I1
sS'bevvy'
p2869
I1
sS'hawn'
p2870
I1
sS'highf'
p2871
I1
sS'no-talents'
p2872
I1
sS'bink'
p2873
I1
sS'bind'
p2874
I1
sS'bing'
p2875
I2
sS'robot'
p2876
I3
sS'issu'
p2877
I10
sS'writ'
p2878
I89
sS'allow'
p2879
I10
sS'classy'
p2880
I1
sS'wolverin'
p2881
I2
sS'over-elaborate'
p2882
I1
sS'houston'
p2883
I1
sS'bitty'
p2884
I1
sS'muth'
p2885
I1
sS'move'
p2886
I1
sS'imperson'
p2887
I1
sS'madelin'
p2888
I2
sS'characters--black'
p2889
I1
sVmovy
p2890
I2553
sS'marketing-fest'
p2891
I1
sS'gengh'
p2892
I2
sS'bunch'
p2893
I36
sS'perfect'
p2894
I12
sS'le'
p2895
I1
sS'tsk'
p2896
I2
sS'birthplac'
p2897
I1
sS'la'
p2898
I3
sS'pluh-lease'
p2899
I1
sS'll'
p2900
I66
sS'li'
p2901
I7
sS'lu'
p2902
I1
sS'slow-motion'
p2903
I1
sVjody
p2904
I4
sS'hobby'
p2905
I1
sS'decad'
p2906
I5
sS'pee-w'
p2907
I1
sS'forest'
p2908
I2
sS'dad'
p2909
I8
sS'cuss'
p2910
I4
sS'dag'
p2911
I1
sS'usua'
p2912
I1
sS'python'
p2913
I4
sS'dam'
p2914
I6
sS'dan'
p2915
I2
sS'overal'
p2916
I18
sS'hammerstein'
p2917
I1
sS'doct'
p2918
I2
sS'docu'
p2919
I16
sS'dat'
p2920
I18
sS'dav'
p2921
I2
sS'overkil'
p2922
I1
sS'dar'
p2923
I7
sS'das'
p2924
I1
sS'waterboy'
p2925
I3
sS'protrub'
p2926
I1
sS'day'
p2927
I80
sS'gadzook'
p2928
I1
sS'immaut'
p2929
I1
sS'e-v-e-r'
p2930
I1
sS'extr'
p2931
I3
sS'anyth'
p2932
I94
sS'booooorrrrrriiiiinnnnngggg'
p2933
I1
sS'pleaaasss'
p2934
I1
sVexceiv
p2935
I43
sS'betty'
p2936
I6
sS'truth'
p2937
I1
sS'disregard'
p2938
I1
sS'stock'
p2939
I3
sS'patron'
p2940
I1
sS'jockstrap'
p2941
I1
sS'bobbybo'
p2942
I1
sS'himself--and'
p2943
I1
sVscanty
p2944
I1
sS'in-your-face'
p2945
I1
sS'dabney'
p2946
I1
sS'thirteen'
p2947
I1
sS'disco'
p2948
I2
sS'stur'
p2949
I1
sS'stup'
p2950
I1
sS'farc'
p2951
I4
sS"'"
p2952
I2486
sS'reload'
p2953
I2
sS'rep'
p2954
I7
sS'cheeseburg'
p2955
I1
sS'rev'
p2956
I6
sS'bad'
p2957
I412
sS'farm'
p2958
I1
sS'"league'
p2959
I1
sS'ren'
p2960
I10
sS'scriptural'
p2961
I1
sS'freack'
p2962
I1
sS'rec'
p2963
I10
sS'stun'
p2964
I4
sS'defens'
p2965
I4
sS'red'
p2966
I7
sS'colem'
p2967
I2
sS'retrievel'
p2968
I1
sS'shut'
p2969
I8
sS'payrol'
p2970
I1
sS'insid'
p2971
I6
sS'frank'
p2972
I11
sS'ben-hur'
p2973
I1
sS'mir'
p2974
I3
sS'greedy'
p2975
I2
sS'templ'
p2976
I1
sS'fourteen'
p2977
I2
sS'shug'
p2978
I1
sS'shud'
p2979
I1
sS'que'
p2980
I1
sVfrant
p2981
I2
sS'tempt'
p2982
I3
sS'shun'
p2983
I1
sS'embarrass'
p2984
I16
sS'comeback'
p2985
I2
sS'pothead'
p2986
I2
sS'afterward'
p2987
I2
sS'unaw'
p2988
I1
sS'scary'
p2989
I119
sS'midl'
p2990
I1
sS'septemb'
p2991
I1
sS'yard'
p2992
I3
sS'terrorisim'
p2993
I1
sS'could'
p2994
I222
sS'baaaaaaaaad'
p2995
I1
sS'david'
p2996
I8
sS'enforc'
p2997
I2
sS'bah'
p2998
I1
sS'outsid'
p2999
I7
sS'presid'
p3000
I11
sS'fras'
p3001
I1
sS'stuck'
p3002
I4
sS'waitress'
p3003
I1
sS'adh'
p3004
I1
sS'ghast'
p3005
I1
sS'finest'
p3006
I2
sS'blown'
p3007
I4
sS'charism'
p3008
I1
sS'whoop'
p3009
I4
sS'puppet'
p3010
I3
sS'pedophyl'
p3011
I1
sS'sacr'
p3012
I3
sS'shalym'
p3013
I1
sVfranky
p3014
I1
sS'facil'
p3015
I2
sS'prank'
p3016
I1
sS'has'
p3017
I214
sS'monkey'
p3018
I6
sS'ols'
p3019
I1
sS'start'
p3020
I65
sS'scand'
p3021
I2
sS'system'
p3022
I3
sS'dimbulb'
p3023
I1
sS'baby"'
p3024
I1
sS'ludicros'
p3025
I1
sS'downey'
p3026
I1
sS'norton'
p3027
I1
sS'aniston'
p3028
I2
sS'unbear'
p3029
I1
sS'cabin'
p3030
I2
sS'hat'
p3031
I176
sS'stomach'
p3032
I6
sS'gear'
p3033
I3
sS'no-where'
p3034
I1
sS'nobody'
p3035
I5
sS'negro'
p3036
I1
sS'karaok'
p3037
I1
sS'spiegel'
p3038
I1
sS'chong'
p3039
I1
sS'steel'
p3040
I1
sS'hungov'
p3041
I1
sS'twioc'
p3042
I1
sS'slack'
p3043
I4
sS'morph'
p3044
I1
sS'denju'
p3045
I1
sS'gkass'
p3046
I1
sS'harold-insane'
p3047
I1
sS'circumspect'
p3048
I1
sS'light'
p3049
I14
sS'psycholog'
p3050
I3
sS'kubrick'
p3051
I15
sS'bulim'
p3052
I2
sS'result'
p3053
I13
sS'relig'
p3054
I5
sS'men-folk'
p3055
I1
sS'lamebrain'
p3056
I1
sS'dumb-ass'
p3057
I1
sS'businessm'
p3058
I2
sS'vacu'
p3059
I2
sS'immigr'
p3060
I1
sS'dumb-asses'
p3061
I1
sS'throat'
p3062
I2
sS'terribley'
p3063
I1
sS'pur'
p3064
I29
sS'mik'
p3065
I13
sS'depict'
p3066
I11
sS'mim'
p3067
I1
sS'mil'
p3068
I23
sVmin
p3069
I34
sS'mia'
p3070
I1
sS'mic'
p3071
I1
sS'mid'
p3072
I2
sS'schwartzaneggar'
p3073
I1
sS'mix'
p3074
I11
sS'psuedo-intellectual'
p3075
I1
sS'spectacul'
p3076
I6
sS'gory'
p3077
I5
sS'mis'
p3078
I12
sS'juliet'
p3079
I3
sS'soap'
p3080
I2
sS'toughest'
p3081
I1
sS'messang'
p3082
I1
sS'unless'
p3083
I24
sS'sfx'
p3084
I3
sS'death-inducing'
p3085
I1
sS'postpubesc'
p3086
I1
sS'tissue-thin'
p3087
I1
sS'sfo'
p3088
I1
sS'eight'
p3089
I2
sS'sucked-its'
p3090
I1
sS'cattl'
p3091
I1
sS'lunch"'
p3092
I1
sS'sist'
p3093
I4
sS'cavem'
p3094
I1
sS'so-called'
p3095
I7
sS'somewh'
p3096
I20
sS'lame-o'
p3097
I2
sS'b-movie'
p3098
I3
sS'consist'
p3099
I5
sS'douch'
p3100
I1
sS'stranded'
p3101
I1
sS'nicholson'
p3102
I8
sS'unseem'
p3103
I1
sS'dribbl'
p3104
I1
sS'absurd'
p3105
I5
sS'mick'
p3106
I1
sS'bret'
p3107
I5
sS'fact'
p3108
I87
sS'goup'
p3109
I1
sS'illit'
p3110
I1
sS'nutrit'
p3111
I1
sS'text'
p3112
I1
sS'gorg'
p3113
I1
sS'hamlet'
p3114
I1
sS'pinhead'
p3115
I1
sS'bring'
p3116
I21
sS'lloyd'
p3117
I2
sS'empir'
p3118
I3
sS'bedroom'
p3119
I1
sS'ripoff'
p3120
I3
sS'texa'
p3121
I10
sS'staff'
p3122
I1
sS'plantet'
p3123
I1
sS'noir'
p3124
I2
sS'nois'
p3125
I2
sS'jay'
p3126
I2
sS'jaw'
p3127
I5
sS'jar'
p3128
I5
sS'jap'
p3129
I3
sS'should'
p3130
I199
sS'jan'
p3131
I9
sS'jam'
p3132
I18
sS'suppos'
p3133
I51
sS'jak'
p3134
I3
sS'intrigu'
p3135
I4
sS'riceburn'
p3136
I1
sS'jag'
p3137
I1
sS'jad'
p3138
I1
sS'shakespear'
p3139
I7
sS'nj'
p3140
I1
sS'meant'
p3141
I6
sS'insight'
p3142
I2
sS'satisfact'
p3143
I1
sS'beat'
p3144
I16
sS'beav'
p3145
I3
sS'rush'
p3146
I5
sS'argentin'
p3147
I1
sS'autom'
p3148
I5
sS'beal'
p3149
I1
sVatroc
p3150
I5
sS'bean'
p3151
I3
sS'demigog'
p3152
I1
sS'increas'
p3153
I1
sS'sperm'
p3154
I1
sS'travisty'
p3155
I1
sVextraordin
p3156
I2
sVreluct
p3157
I2
sS'crabt'
p3158
I3
sS'h'
p3159
I6
sS'frequ'
p3160
I1
sS'agr'
p3161
I24
sS'reid'
p3162
I2
sS'stuff'
p3163
I36
sS'whisperer"'
p3164
I1
sS'ohio'
p3165
I1
sS'rein'
p3166
I2
sS'attribut'
p3167
I1
sS'gibson'
p3168
I22
sS'hi-tech'
p3169
I1
sS'waterworld'
p3170
I1
sS'withstand'
p3171
I1
sS'btw'
p3172
I1
sS'potboil'
p3173
I1
sS'unimport'
p3174
I2
sS'horrend'
p3175
I10
sS'war-loving'
p3176
I1
sS'accord'
p3177
I4
sS'apolog'
p3178
I4
sS'nostalg'
p3179
I1
sS'curiosity-since'
p3180
I1
sS'theres'
p3181
I1
sS'skynet'
p3182
I1
sS'10-year-old'
p3183
I2
sS'superhero'
p3184
I2
sS'destiny'
p3185
I1
sS'pseudo-intelligentsia'
p3186
I1
sS'frequently-used'
p3187
I1
sS'nuclear'
p3188
I2
sS'see-through'
p3189
I1
sS'indoctrin'
p3190
I1
sS'misus'
p3191
I1
sS'horny'
p3192
I1
sS'99cents'
p3193
I1
sS'proof'
p3194
I7
sS'denero'
p3195
I1
sS'unecess'
p3196
I2
sS'borscht'
p3197
I1
sS'progress'
p3198
I2
sS'email'
p3199
I1
sS'third-rate'
p3200
I2
sVgratuty
p3201
I2
sS'weak'
p3202
I25
sS'sabrin'
p3203
I1
sS'axelrod2003'
p3204
I1
sS'dislik'
p3205
I6
sS'yummy'
p3206
I1
sS'self-interested'
p3207
I1
sS'undoubt'
p3208
I1
sVminny
p3209
I1
sS'action"'
p3210
I1
sS'boloney'
p3211
I2
sS'heartwarm'
p3212
I1
sS'bee'
p3213
I5
sS'bridget'
p3214
I1
sS'preambl'
p3215
I1
sS'waaaaaayyyyy'
p3216
I1
sS'decay'
p3217
I1
sS'ramp'
p3218
I4
sS'zeta-jones'
p3219
I1
sS'agree'
p3220
I7
sS'marth'
p3221
I4
sS'arrrgh'
p3222
I1
sS'lo'
p3223
I2
sS'swim'
p3224
I1
sS'ws'
p3225
I1
sS'swallow'
p3226
I4
sS'highland'
p3227
I1
sS'boy-meets-girl'
p3228
I1
sS'devout'
p3229
I1
sS'ck'
p3230
I1
sS'strongly'
p3231
I1
sS'weakmind'
p3232
I1
sS'guidelin'
p3233
I1
sS'cg'
p3234
I2
sS'disappointd'
p3235
I1
sVveng
p3236
I1
sVyuppy
p3237
I1
sS'carbon'
p3238
I2
sS'cr'
p3239
I2
sS'uck'
p3240
I1
sS'beastmast'
p3241
I1
sS'lect'
p3242
I1
sS'johnny'
p3243
I4
sS'\xa9'
p3244
I2
sVimmedy
p3245
I2
sS'romero'
p3246
I4
sS'ah'
p3247
I4
sS'ak'
p3248
I1
sVinsufficy
p3249
I1
sS'renny'
p3250
I1
sS'hard-core'
p3251
I1
sS'caddy'
p3252
I1
sS'cos'
p3253
I1
sVpsiquy
p3254
I1
sS'assert'
p3255
I2
sS'glossiest'
p3256
I1
sS'ao'
p3257
I1
sVmispronount
p3258
I1
sS'an'
p3259
I317
sVount
p3260
I1
sS'holiday'
p3261
I1
sS'vapid'
p3262
I4
sS'mixed-up'
p3263
I1
sS'plain'
p3264
I36
sS'brat'
p3265
I6
sS'stalin'
p3266
I1
sS'non-zombie'
p3267
I1
sS'"one'
p3268
I1
sS'tohught'
p3269
I1
sS'bathtub'
p3270
I5
sS'maul'
p3271
I2
sS'sith'
p3272
I1
sS'ilm'
p3273
I1
sS've'
p3274
I153
sS'almost'
p3275
I74
sS'virt'
p3276
I4
sS'squid'
p3277
I1
sS'lust'
p3278
I1
sS'ay'
p3279
I1
sS'vs'
p3280
I9
sS'mockingbird'
p3281
I1
sS'wrong--this'
p3282
I1
sS'raison'
p3283
I1
sS'fiddl'
p3284
I1
sS'incon'
p3285
I1
sS'incoh'
p3286
I1
sS'situ'
p3287
I6
sS'portray'
p3288
I26
sS'tattoo'
p3289
I2
sS'hubbard'
p3290
I1
sS'tupac'
p3291
I4
sS'japanes'
p3292
I12
sS')'
p3293
I368
sS'goddess'
p3294
I1
sS'matthew'
p3295
I2
sS'catwom'
p3296
I3
sS'fabl'
p3297
I1
sS'sled'
p3298
I1
sS'competit'
p3299
I1
sS'balm'
p3300
I1
sS'peic'
p3301
I11
sS'dusk'
p3302
I2
sS'bald'
p3303
I2
sS'upon'
p3304
I11
sS'iago'
p3305
I1
sS'spew'
p3306
I4
sS'sodim'
p3307
I1
sS's-u-c-k-e-d'
p3308
I1
sS'expand'
p3309
I1
sS'metaph'
p3310
I1
sS'techn'
p3311
I5
sS'plotless'
p3312
I4
sS'off'
p3313
I161
sS'forty-eight'
p3314
I1
sS'nevertheless'
p3315
I1
sS'devalu'
p3316
I1
sS'weapon'
p3317
I11
sS'phas'
p3318
I1
sS'phar'
p3319
I1
sS'underfund'
p3320
I1
sS'antonio'
p3321
I1
sS'englund'
p3322
I1
sS'superhum'
p3323
I1
sS'retart'
p3324
I2
sS'exampl'
p3325
I28
sS'command'
p3326
I1
sS'oft'
p3327
I6
sS'350'
p3328
I1
sS'powd'
p3329
I1
sS'posses'
p3330
I1
sS'lest'
p3331
I9
sS'pie-'
p3332
I1
sS'kiss'
p3333
I8
sS'less'
p3334
I34
sS'humor-'
p3335
I1
sS'feminin'
p3336
I1
sS'lesb'
p3337
I3
sS'naom'
p3338
I2
sS'nikelodeon'
p3339
I1
sS'paul'
p3340
I1
sS'maggoo'
p3341
I1
sS'pie3'
p3342
I1
sS'broomstick'
p3343
I1
sS'flashlight'
p3344
I2
sS'web'
p3345
I4
sS'work-'
p3346
I1
sS'adp'
p3347
I1
sS'wed'
p3348
I2
sS'enlight'
p3349
I2
sS'sucksbigmonkeynut'
p3350
I1
sVconscy
p3351
I2
sS'wes'
p3352
I3
sS'arrest'
p3353
I4
sS'creepier-the'
p3354
I1
sS'reunit'
p3355
I1
sS'thought-provoking'
p3356
I2
sS'niro'
p3357
I4
sS'dis-tasteful'
p3358
I1
sS'match'
p3359
I2
sS'trad'
p3360
I6
sS'dement'
p3361
I1
sS're-arranged'
p3362
I1
sS'crud'
p3363
I32
sS'piec'
p3364
I111
sS'testa'
p3365
I2
sS'90ies'
p3366
I1
sS'cruz'
p3367
I2
sS'fan-'
p3368
I1
sS'swordf'
p3369
I1
sS'2nd'
p3370
I1
sS'dy-no-mite'
p3371
I1
sS'insert'
p3372
I2
sS'3-d'
p3373
I1
sS'resid'
p3374
I1
sS'backbon'
p3375
I1
sS'success'
p3376
I16
sS'bigotry'
p3377
I1
sS'doctrin'
p3378
I1
sS'tram'
p3379
I1
sS'imprison'
p3380
I2
sS'chick'
p3381
I19
sS'lamest'
p3382
I4
sS'armand'
p3383
I1
sS'enterta'
p3384
I1
sS'incens'
p3385
I1
sS'zzzzz'
p3386
I1
sS'bleedin'
p3387
I1
sS'murd'
p3388
I17
sS'mean-hearted'
p3389
I1
sS'hair'
p3390
I11
sS'tony'
p3391
I2
sS'mish-mash'
p3392
I1
sS'big-budget'
p3393
I1
sS'flush'
p3394
I1
sS'whqat'
p3395
I1
sS'genuin'
p3396
I4
sS'transport'
p3397
I1
sS'computer-generated'
p3398
I1
sS'est'
p3399
I3
sS'unfunny'
p3400
I31
sS'esp'
p3401
I1
sS'gweny'
p3402
I3
sS'anti-castro'
p3403
I1
sS'kiddy'
p3404
I3
sS'anti-semitism'
p3405
I3
sVdisbeliev
p3406
I2
sS'screwed'
p3407
I6
sS'blurry'
p3408
I1
sS'regain'
p3409
I1
sS'annet'
p3410
I1
sS'kool-aid'
p3411
I2
sS'slight'
p3412
I11
sS'asteroid'
p3413
I1
sS'"faster'
p3414
I1
sS'cryst'
p3415
I4
sS'host'
p3416
I4
sS'petty'
p3417
I3
sS'overreact'
p3418
I1
sS'although'
p3419
I21
sS'naff'
p3420
I1
sS'gandalf'
p3421
I1
sS'answ'
p3422
I1
sS'panel'
p3423
I1
sS'about'
p3424
I422
sS'actual'
p3425
I1
sS'justin'
p3426
I4
sS'world'
p3427
I54
sS'certainty'
p3428
I1
sS'"you'
p3429
I1
sVglady
p3430
I2
sS'airpl'
p3431
I4
sS'favor--stay'
p3432
I1
sS'rustun'
p3433
I1
sS'tomb'
p3434
I4
sS'miscast'
p3435
I6
sS'stupefy'
p3436
I1
sS'unpopul'
p3437
I3
sS'chestnut'
p3438
I1
sS'guard'
p3439
I2
sS'doesnt'
p3440
I5
sS'esteem'
p3441
I2
sS'awhil'
p3442
I1
sS'playth'
p3443
I1
sS'brass'
p3444
I1
sS'merg'
p3445
I1
sS'muck'
p3446
I4
sS'1985'
p3447
I1
sS'retel'
p3448
I1
sS'1983'
p3449
I2
sS'1980'
p3450
I1
sS'terrr'
p3451
I1
sS'redeam'
p3452
I3
sS'restraunt'
p3453
I1
sVintellig
p3454
I26
sS'b-horror'
p3455
I1
sS'tepid'
p3456
I1
sS'biggest'
p3457
I30
sS'ditsy'
p3458
I1
sS'mcgregor'
p3459
I1
sS'buy'
p3460
I22
sS'fru'
p3461
I3
sS'unexpect'
p3462
I1
sS'innoc'
p3463
I2
sS'bus'
p3464
I10
sS'brand'
p3465
I3
sS'sequel'
p3466
I57
sS'but'
p3467
I757
sS'jawbreak'
p3468
I1
sS'bul'
p3469
I14
sS'offens'
p3470
I3
sS'comatos'
p3471
I1
sS'be'
p3472
I564
sS'apollo'
p3473
I1
sS'bug'
p3474
I4
sS'bud'
p3475
I1
sS'count'
p3476
I5
sS'simili'
p3477
I1
sS'farrah'
p3478
I1
sS'wish'
p3479
I34
sS'j'
p3480
I5
sS'flip'
p3481
I1
sS'mushy'
p3482
I1
sS'puert'
p3483
I1
sS'nickelson'
p3484
I2
sS'problem'
p3485
I19
sS'pil'
p3486
I15
sS'"judge'
p3487
I1
sS'caretak'
p3488
I1
sS'int'
p3489
I9
sS'inv'
p3490
I2
sS'pic'
p3491
I2
sS'pie'
p3492
I6
sS'pig'
p3493
I3
sS'pix'
p3494
I1
sS'inh'
p3495
I2
sS'our'
p3496
I53
sS'pip'
p3497
I3
sS'dawson'
p3498
I1
sS'ing'
p3499
I4
sS'pit'
p3500
I6
sS'80'
p3501
I11
sS'retrospect'
p3502
I1
sS'48'
p3503
I1
sS'nonetheless'
p3504
I1
sS'44'
p3505
I1
sS'45'
p3506
I5
sS'detail'
p3507
I8
sS'40'
p3508
I4
sS'badly-acted'
p3509
I1
sS'headmistress'
p3510
I1
sVmass
p3511
I11
sS'behold'
p3512
I1
sS'nelson'
p3513
I1
sS'allthough'
p3514
I1
sS'class'
p3515
I51
sS'semin'
p3516
I1
sS'shakesp'
p3517
I1
sS'log'
p3518
I4
sS'veil'
p3519
I2
sS'vein'
p3520
I2
sS'matrix'
p3521
I11
sS'ghost'
p3522
I1
sS'stut'
p3523
I1
sS'cookbook'
p3524
I1
sS'homosex'
p3525
I2
sS'8th'
p3526
I1
sS'high-budget'
p3527
I1
sS'two-dimensional'
p3528
I1
sS'hitch'
p3529
I2
sS'oscar-what'
p3530
I1
sS'acadamy'
p3531
I1
sS'sleep'
p3532
I28
sS'upsid'
p3533
I1
sVsci
p3534
I17
sS'ozzy'
p3535
I1
sS'porno'
p3536
I3
sS'const'
p3537
I9
sS'asthet'
p3538
I1
sS'stinky'
p3539
I3
sVinvas
p3540
I2
sS'vcr'
p3541
I1
sS'bludgeon'
p3542
I2
sS'spel'
p3543
I2
sS'edward'
p3544
I2
sS'under'
p3545
I3
sS'spee'
p3546
I4
sS'stinko'
p3547
I1
sS'spec'
p3548
I63
sS'@'
p3549
I4
sS'manip'
p3550
I8
sS'risk'
p3551
I3
sS'simmon'
p3552
I1
sS'distort'
p3553
I5
sS'"documentaries"'
p3554
I1
sS'macguir'
p3555
I1
sS'every'
p3556
I79
sS'jack'
p3557
I17
sS'murph'
p3558
I5
sS'jacob'
p3559
I1
sS'tank'
p3560
I4
sS'month'
p3561
I4
sS'geoc'
p3562
I1
sS'school'
p3563
I30
sVflashd
p3564
I1
sS'baaaaadddd'
p3565
I1
sS'regret"'
p3566
I1
sS'flashy'
p3567
I2
sVpoppy
p3568
I2
sS'triumph'
p3569
I2
sS'enjoy'
p3570
I66
sS'scurril'
p3571
I1
sS'cher'
p3572
I3
sS'blasphemy'
p3573
I5
sS'naiv'
p3574
I2
sS'direct'
p3575
I113
sS'pessimsit'
p3576
I2
sS'nail'
p3577
I6
sS'cameron'
p3578
I9
sS'nerdiest'
p3579
I1
sS'horr'
p3580
I170
sS'manup'
p3581
I1
sVspecy
p3582
I1
sS'7th'
p3583
I1
sS'chem'
p3584
I17
sS'sorriest'
p3585
I2
sS'dinosa'
p3586
I3
sVdisneyfy
p3587
I1
sS'scenery-chewing'
p3588
I1
sS'christ'
p3589
I7
sS'blub'
p3590
I1
sS'solemn'
p3591
I1
sS'low-brow'
p3592
I1
sS'amus'
p3593
I16
sVliberty
p3594
I2
sS'obsc'
p3595
I6
sS'filmmak'
p3596
I7
sS'bleep'
p3597
I1
sVhidy
p3598
I1
sVhillbl
p3599
I1
sS'unneces'
p3600
I1
sS'disney'
p3601
I19
sS'told'
p3602
I15
sS'neeson'
p3603
I3
sS'zack'
p3604
I1
sVpaty
p3605
I3
sS'chick-fil-a'
p3606
I1
sS'pluto'
p3607
I2
sS'studio'
p3608
I7
sS'path'
p3609
I2
sS'beca'
p3610
I1
sS'tourch'
p3611
I1
sS'property'
p3612
I1
sS'monit'
p3613
I1
sVprecid
p3614
I2
sS'study'
p3615
I1
sS'worse-'
p3616
I1
sS'corleon'
p3617
I1
sS'bigtim'
p3618
I1
sS'cash--unless'
p3619
I1
sS'incas'
p3620
I1
sS'nsna'
p3621
I1
sS'tremend'
p3622
I2
sS'poplul'
p3623
I1
sVmelany
p3624
I1
sS'spooky'
p3625
I2
sS'iconoclasm'
p3626
I1
sS'infantil'
p3627
I2
sVfrasy
p3628
I3
sS'bro'
p3629
I3
sS'releas'
p3630
I10
sS'attitud'
p3631
I7
sS'bri'
p3632
I1
sS'hindsight'
p3633
I1
sS'eastwood'
p3634
I2
sS'bra'
p3635
I2
sS'matild'
p3636
I1
sS'plot'
p3637
I227
sS'me-it'
p3638
I1
sVdescrib
p3639
I22
sS'would'
p3640
I334
sS'ploy'
p3641
I3
sS'"mom"'
p3642
I1
sS'insult'
p3643
I35
sS'plod'
p3644
I1
sS'lazenby'
p3645
I1
sS'preview'
p3646
I15
sS'moiv'
p3647
I2
sS'dicapprio'
p3648
I1
sS'dialoug'
p3649
I6
sS'phony'
p3650
I7
sS'award'
p3651
I9
sS'jango'
p3652
I1
sS'jangl'
p3653
I1
sS'film-making'
p3654
I1
sS'overrun'
p3655
I1
sS'must'
p3656
I55
sS'me'
p3657
I389
sS'fish-slapping'
p3658
I1
sS'word'
p3659
I60
sS'1994'
p3660
I1
sS'1996'
p3661
I2
sS'mm'
p3662
I1
sS'1998'
p3663
I1
sS'work'
p3664
I73
sS'coppol'
p3665
I2
sS'pierc'
p3666
I5
sS'erf'
p3667
I1
sS'wors'
p3668
I78
sS'norm'
p3669
I14
sS'ms'
p3670
I2
sS'henry'
p3671
I2
sS'my'
p3672
I419
sS'shama'
p3673
I1
sS'looooong'
p3674
I1
sS'ricahard'
p3675
I1
sS'repos'
p3676
I2
sS'better-i'
p3677
I1
sS'termin'
p3678
I5
sS'heartless'
p3679
I1
sS'strangelove'
p3680
I2
sS'impair'
p3681
I1
sS'mayhem'
p3682
I1
sS'overheard'
p3683
I1
sS'harold'
p3684
I1
sS'attract'
p3685
I14
sS'guarantee'
p3686
I1
sS'cartoon-like'
p3687
I1
sS'end'
p3688
I178
sS'furiouser"'
p3689
I1
sS'eng'
p3690
I5
sS'agony'
p3691
I1
sS'dreamwork'
p3692
I2
sS'one-liners'
p3693
I1
sS'far'
p3694
I61
sS'shakin'
p3695
I1
sS'shred'
p3696
I1
sS'gath'
p3697
I2
sS'foulest'
p3698
I1
sS'moron'
p3699
I21
sS'disappoint'
p3700
I66
sS'widespread'
p3701
I1
sS'over-commercialize'
p3702
I1
sS'beach'
p3703
I4
sS'collaps'
p3704
I1
sS'lal'
p3705
I1
sS'lam'
p3706
I55
sS'recogn'
p3707
I3
sS'claptrap'
p3708
I5
sS'mess'
p3709
I40
sS'over-when'
p3710
I1
sS'hong'
p3711
I1
sS'lump'
p3712
I2
sS'lac'
p3713
I4
sS'lay'
p3714
I5
sS'retain'
p3715
I1
sS'lat'
p3716
I24
sS'deliberations-'
p3717
I1
sVlaw
p3718
I11
sS'lap'
p3719
I1
sS'lar'
p3720
I3
sS'unorig'
p3721
I1
sS'danny'
p3722
I4
sS'domin'
p3723
I5
sS'austin'
p3724
I9
sS'schneider'
p3725
I1
sVexclud
p3726
I3
sS'greek'
p3727
I3
sS'pract'
p3728
I4
sS'funniest'
p3729
I5
sS'mega-bomb'
p3730
I1
sS'suggest'
p3731
I11
sS'plagu'
p3732
I3
sS'worst'
p3733
I286
sS'behav'
p3734
I1
sS'deform'
p3735
I1
sS'dirtiest'
p3736
I1
sS'over'
p3737
I52
sS'orang'
p3738
I5
sS'becaus'
p3739
I197
sS'consens'
p3740
I2
sS'typewrit'
p3741
I1
sS'london'
p3742
I1
sS'doofus'
p3743
I1
sS'incid'
p3744
I3
sS'fac'
p3745
I35
sS'strangle'
p3746
I4
sS'digest'
p3747
I1
sS'american-style'
p3748
I1
sS'hypocrisy'
p3749
I2
sS'cle'
p3750
I8
sS'cla'
p3751
I1
sS'imo'
p3752
I1
sVcomprehend
p3753
I1
sS'tramp'
p3754
I1
sVpremiscy
p3755
I1
sS'begot'
p3756
I1
sS'clu'
p3757
I8
sS'then'
p3758
I115
sS'them'
p3759
I128
sS'break'
p3760
I21
sS'band'
p3761
I2
sS'bang'
p3762
I4
sS'tbwp'
p3763
I2
sS'ndic'
p3764
I1
sS'they'
p3765
I447
sS'thes'
p3766
I78
sS'ther'
p3767
I317
sS'bank'
p3768
I6
sS'bread'
p3769
I1
sS'30-year'
p3770
I1
sS'alex'
p3771
I5
sS'rocky'
p3772
I3
sS'say-horrible'
p3773
I1
sVtootsy
p3774
I1
sS'slavery'
p3775
I5
sS'no-brain'
p3776
I1
sS'choir'
p3777
I1
sS'im2'
p3778
I1
sS'each'
p3779
I21
sS'thruout'
p3780
I1
sS'complet'
p3781
I87
sS'alec'
p3782
I2
sS'moviego'
p3783
I2
sVroxy
p3784
I1
sS'charlot'
p3785
I1
sS'dorkass'
p3786
I1
sS'wwf-like'
p3787
I1
sS'alumn'
p3788
I1
sS'snorefest'
p3789
I1
sS'ommit'
p3790
I1
sS'saturday'
p3791
I2
sS'fuss'
p3792
I2
sS'depress'
p3793
I15
sS'gon'
p3794
I20
sS'wga'
p3795
I1
sS'network'
p3796
I2
sS'goebbel'
p3797
I1
sS'goe'
p3798
I37
sS'god'
p3799
I67
sS'diesel'
p3800
I6
sS'forty'
p3801
I1
sS'gob'
p3802
I2
sS'strangers'
p3803
I1
sS'laid'
p3804
I4
sS'daniel'
p3805
I3
sS'got'
p3806
I121
sS'monro'
p3807
I1
sS'intro'
p3808
I1
sS'columbin'
p3809
I3
sS'gor'
p3810
I24
sS'non-obnoxious'
p3811
I1
sS'inov'
p3812
I1
sS'worthwhil'
p3813
I1
sS'free'
p3814
I1
sS'standard'
p3815
I12
sS'nth'
p3816
I1
sS's-new-clothes'
p3817
I1
sS'rain'
p3818
I4
sS'estevez'
p3819
I1
sS'publ'
p3820
I21
sS'maniac'
p3821
I4
sS'angl'
p3822
I6
sVcapricy
p3823
I1
sS'sank'
p3824
I1
sS'hech'
p3825
I1
sS'lousy'
p3826
I8
sS'renew'
p3827
I2
sS'heck'
p3828
I9
sS'hopeless'
p3829
I4
sS'differnt'
p3830
I1
sS'subtl'
p3831
I5
sS'onto'
p3832
I4
sS'pygm'
p3833
I2
sS'flick'
p3834
I58
sS'rang'
p3835
I3
sS'already'
p3836
I28
sS'kil'
p3837
I98
sS'comit'
p3838
I1
sS'rank'
p3839
I5
sVnecess
p3840
I8
sS'rant'
p3841
I3
sS'grisley'
p3842
I1
sS'atmosph'
p3843
I4
sS'fantast'
p3844
I12
sS'manicha'
p3845
I1
sS'fahrenheit'
p3846
I2
sS'toy'
p3847
I4
sS'nomin'
p3848
I1
sS'potty'
p3849
I1
sS'tor'
p3850
I6
sS'sarcasm'
p3851
I3
sS'top'
p3852
I41
sS'equ'
p3853
I3
sS'finac'
p3854
I1
sS'tot'
p3855
I98
sS'sarcast'
p3856
I3
sS'noooooo'
p3857
I1
sS'ton'
p3858
I10
sS'too'
p3859
I192
sS'tol'
p3860
I4
sS'tom'
p3861
I38
sS'tob'
p3862
I1
sS'morlock'
p3863
I1
sS'john'
p3864
I36
sS'carrey'
p3865
I20
sS'toe'
p3866
I1
sS'built-in'
p3867
I1
sS'tool'
p3868
I4
sS'albert'
p3869
I2
sS'took'
p3870
I29
sS'western'
p3871
I5
sS'conserv'
p3872
I4
sS'overdram'
p3873
I1
sS'toronto'
p3874
I1
sS'mercy'
p3875
I2
sS'target'
p3876
I3
sS'kung-fu'
p3877
I1
sS'predictib'
p3878
I1
sVprovid
p3879
I4
sS'99'
p3880
I1
sS'1977'
p3881
I3
sS'-----todd'
p3882
I2
sS'guilt'
p3883
I2
sS'painful'
p3884
I3
sS'iron'
p3885
I7
sS'expl'
p3886
I5
sS'minut'
p3887
I101
sS'10th'
p3888
I1
sS'1975'
p3889
I1
sS'screenplay'
p3890
I11
sS'rag'
p3891
I2
sS'donkey'
p3892
I6
sS'1974'
p3893
I2
sS'rac'
p3894
I40
sS'money-grubbing'
p3895
I1
sS'ran'
p3896
I7
sS'ram'
p3897
I1
sS'stockad'
p3898
I1
sS'drip'
p3899
I2
sS'rav'
p3900
I3
sS'raw'
p3901
I2
sS'rat'
p3902
I102
sS'rar'
p3903
I7
sS'rap'
p3904
I10
sS'bleeech'
p3905
I1
sS'accompany'
p3906
I1
sS'ohhhh'
p3907
I1
sS'lbj'
p3908
I1
sS'raz'
p3909
I2
sS'pfieff'
p3910
I1
sS'ray'
p3911
I3
sS'strength'
p3912
I1
sS'realm'
p3913
I2
sS'campy'
p3914
I4
sS'braveheart'
p3915
I5
sS'-'
p3916
I107
sS'woodchip'
p3917
I1
sS'thorough'
p3918
I1
sS'mean-spirited'
p3919
I3
sS'contact'
p3920
I4
sS'territ'
p3921
I1
sS'tarntino-like'
p3922
I1
sS'hahahahahaahahaahah'
p3923
I1
sS'thoma'
p3924
I3
sS'spealberg'
p3925
I1
sS'yucky'
p3926
I3
sS'dian'
p3927
I1
sS'princess'
p3928
I2
sS'naturallyyou'
p3929
I1
sS'though'
p3930
I75
sS'glob'
p3931
I2
sS'what'
p3932
I444
sS'volleybal'
p3933
I1
sS'sud'
p3934
I10
sS'germany'
p3935
I1
sS'plenty'
p3936
I5
sS'scripts'
p3937
I6
sS'glor'
p3938
I6
sS'phantasm'
p3939
I2
sS'the'
p3940
I5730
sS'bsb'
p3941
I1
sS'bodybuild'
p3942
I1
sS'excus'
p3943
I22
sS'mixt'
p3944
I1
sS'flop'
p3945
I5
sS'metal'
p3946
I1
sS'deeply'
p3947
I2
sS'flog'
p3948
I3
sVoppress
p3949
I5
sS'yank'
p3950
I2
sS'behavio'
p3951
I1
sS'absent-minded'
p3952
I1
sS'slutty'
p3953
I2
sS'opposit'
p3954
I1
sS'queen'
p3955
I3
sS'bimbo'
p3956
I4
sS'levy'
p3957
I1
sS'radio'
p3958
I1
sS'humdr'
p3959
I1
sS'earth'
p3960
I1
sS'comprom'
p3961
I2
sS'bail'
p3962
I2
sS'blechhhh'
p3963
I1
sS'involv'
p3964
I23
sS'carib'
p3965
I1
sS'givin'
p3966
I1
sS'displeas'
p3967
I1
sS'occ'
p3968
I4
sS'voyu'
p3969
I1
sS'awsom'
p3970
I1
sS'glasnost'
p3971
I1
sS'sympathet'
p3972
I1
sS'screening'
p3973
I3
sS'disgust'
p3974
I40
sS'booorrrrinnnnngggg'
p3975
I1
sS'tickl'
p3976
I1
sS'do'
p3977
I213
sS'grail'
p3978
I3
sS'exorcist"'
p3979
I1
sS'de'
p3980
I7
sS'watch'
p3981
I349
sS'photograph'
p3982
I2
sS'unfair'
p3983
I1
sS'geek'
p3984
I2
sS'1941'
p3985
I3
sS'jail'
p3986
I1
sS'report'
p3987
I7
sS'ya-y'
p3988
I1
sS'nasty'
p3989
I9
sS'dr'
p3990
I10
sS'gayn'
p3991
I1
sS'gearg'
p3992
I1
sS'diabet'
p3993
I1
sS'crocodil'
p3994
I1
sS'ahhhhhhh'
p3995
I1
sS'devil-angel'
p3996
I1
sS'gaul'
p3997
I1
sS'emp'
p3998
I5
sS'pokemon4ever'
p3999
I1
sS'winon'
p4000
I9
sS'steak'
p4001
I2
sS'lobotom'
p4002
I2
sS'pocahonta'
p4003
I1
sS'swept'
p4004
I1
sS'misdirect'
p4005
I1
sVsimultany
p4006
I1
sS'assualt'
p4007
I1
sS'charect'
p4008
I1
sS'inapt'
p4009
I1
sS'nun'
p4010
I1
sS'scourg'
p4011
I2
sS'num'
p4012
I2
sVrobby
p4013
I1
sS'corrupt'
p4014
I3
sS'themselv'
p4015
I16
sS'nud'
p4016
I18
sS'charact'
p4017
I184
sVpercuss
p4018
I1
sS'horrendouz'
p4019
I1
sS'isht'
p4020
I3
sS'mut'
p4021
I6
sS'debut'
p4022
I1
sS'grumbl'
p4023
I1
sS'mus'
p4024
I59
sS'away'
p4025
I52
sVreggy
p4026
I1
sS'"oh'
p4027
I1
sS'mud'
p4028
I2
sS'outstand'
p4029
I1
sS'muc'
p4030
I1
sS'awak'
p4031
I5
sS'drawn'
p4032
I8
sS'mun'
p4033
I1
sS'approach'
p4034
I4
sS'story-lined'
p4035
I1
sS'360'
p4036
I2
sS'2-hour'
p4037
I1
sS'inton'
p4038
I1
sS'we'
p4039
I128
sS'intol'
p4040
I3
sS'wb'
p4041
I1
sVdetery
p4042
I2
sS'uninspir'
p4043
I8
sS'boss'
p4044
I4
sS'weav'
p4045
I2
sS'unnessac'
p4046
I1
sS'wear'
p4047
I10
sS'unfold'
p4048
I1
sS'films-'
p4049
I1
sS'oomph'
p4050
I1
sS'politicak'
p4051
I1
sS'cop'
p4052
I29
sS'protect'
p4053
I4
sS'brav'
p4054
I2
sS'cow'
p4055
I5
sS'cov'
p4056
I6
sS'fault'
p4057
I3
sS'howev'
p4058
I31
sS'myer'
p4059
I14
sS'tushy'
p4060
I1
sS'brag'
p4061
I1
sS'cod'
p4062
I1
sS'brad'
p4063
I4
sS'coh'
p4064
I4
sS'com'
p4065
I182
sS'col'
p4066
I3
sS'con'
p4067
I5
sS'exhibit'
p4068
I1
sS'tough'
p4069
I4
sS'spear'
p4070
I1
sS'surpr'
p4071
I24
sS'guit'
p4072
I1
sS'guis'
p4073
I1
sS'believethes'
p4074
I1
sS'dakot'
p4075
I1
sS'guin'
p4076
I1
sS'guil'
p4077
I6
sS'maudlin'
p4078
I4
sS'corniest'
p4079
I1
sS'dougla'
p4080
I5
sS'bikin'
p4081
I2
sS'trust'
p4082
I11
sS'speak'
p4083
I9
sS'bathroom'
p4084
I7
sS'strong'
p4085
I4
sS'indebt'
p4086
I1
sS'beef'
p4087
I1
sS'nonsens'
p4088
I16
sS'been'
p4089
I170
sS'legend'
p4090
I17
sS'beer'
p4091
I3
sS'anym'
p4092
I12
sS'subscrib'
p4093
I1
sS'stubbl'
p4094
I1
sS'fauk'
p4095
I1
sS'baum'
p4096
I1
sS'xxx'
p4097
I1
sS'fest'
p4098
I6
sS'craft'
p4099
I2
sS'catch'
p4100
I9
sS'teapot'
p4101
I1
sS'gnr'
p4102
I1
sS'davison'
p4103
I1
sS'monst'
p4104
I6
sS'ident'
p4105
I2
sS'high-school'
p4106
I2
sS'depl'
p4107
I3
sS'fallon'
p4108
I1
sS'air'
p4109
I10
sS'aim'
p4110
I3
sS'ehhhhh'
p4111
I1
sS'ain'
p4112
I1
sS'ugliest'
p4113
I2
sS'depr'
p4114
I1
sS'aid'
p4115
I4
sS'vagu'
p4116
I3
sS'succes'
p4117
I1
sS'over-compensate'
p4118
I1
sS'stink'
p4119
I29
sS'cont'
p4120
I29
sS'broth'
p4121
I16
sS'tabl'
p4122
I3
sS'disect'
p4123
I1
sS'forefath'
p4124
I1
sS'audrey'
p4125
I1
sS'disjoint'
p4126
I3
sS'dizzy'
p4127
I3
sS'whing'
p4128
I1
sS'conf'
p4129
I2
sS'blood-soak'
p4130
I1
sS'uplift'
p4131
I3
sS'-an'
p4132
I1
sS'hollywood-is'
p4133
I1
sS'latournoesqu'
p4134
I1
sVwarry
p4135
I2
sVperform
p4136
I52
sS'philadelph'
p4137
I1
sS'jerry'
p4138
I9
sS'forehead'
p4139
I1
sS'saggin'
p4140
I1
sS'complex'
p4141
I3
sS'descend'
p4142
I1
sS'deceas'
p4143
I1
sS'afric'
p4144
I2
sS'yung'
p4145
I1
sS'hank'
p4146
I12
sS'nin'
p4147
I5
sS'hann'
p4148
I1
sVevid
p4149
I4
sS'saddam'
p4150
I1
sS'nic'
p4151
I22
sS'quentin'
p4152
I4
sS'hang'
p4153
I6
sS'evil'
p4154
I19
sS'hand'
p4155
I16
sS'pseudo-art'
p4156
I1
sS'movie-goers'
p4157
I1
sS'rais'
p4158
I3
sS'capr'
p4159
I1
sS'die"'
p4160
I1
sS'welldon'
p4161
I1
sS'tyson'
p4162
I1
sS'name--ll'
p4163
I1
sS'johny'
p4164
I1
sS'characterz'
p4165
I1
sS'rediculous-'
p4166
I1
sS'kept'
p4167
I17
sS'1979'
p4168
I1
sS'heartb'
p4169
I1
sS'1600'
p4170
I1
sS'thu'
p4171
I3
sS'driv'
p4172
I19
sS'thr'
p4173
I2
sS'1970'
p4174
I1
sS'tho'
p4175
I1
sS'dril'
p4176
I3
sVhearty
p4177
I1
sS'greatest'
p4178
I16
sS'thi'
p4179
I2531
sS'everyth'
p4180
I38
sS'jackham'
p4181
I1
sS'dadp'
p4182
I1
sS'tha'
p4183
I1
sS'ultra-liberal'
p4184
I2
sS'reposo'
p4185
I1
sS'eileen'
p4186
I1
sS'photo'
p4187
I1
sS'laptop'
p4188
I1
sS'slid'
p4189
I2
sS'via'
p4190
I1
sS'victim'
p4191
I7
sVinappropry
p4192
I1
sS'errand'
p4193
I1
sS'pac-man'
p4194
I1
sS'expos'
p4195
I4
sS'elm'
p4196
I1
sS'josh'
p4197
I4
sS'eld'
p4198
I1
sS'kelt'
p4199
I1
sS'shout'
p4200
I2
sS'spread'
p4201
I4
sS'board'
p4202
I5
sS'yech'
p4203
I1
sS'els'
p4204
I42
sS'pedest'
p4205
I1
sS'borefest'
p4206
I2
sS'puppetry'
p4207
I1
sS'mayb'
p4208
I51
sS'capt'
p4209
I11
sS'leatherfac'
p4210
I1
sS'right-wing'
p4211
I1
sS'retread'
p4212
I1
sS'busey'
p4213
I1
sS'arab'
p4214
I4
sS'leagu'
p4215
I1
sS'picasso'
p4216
I1
sS'inadmiss'
p4217
I1
sS'apart'
p4218
I9
sS'latino'
p4219
I1
sS'riddl'
p4220
I2
sS'ditto'
p4221
I1
sS'gift'
p4222
I4
sS'bygon'
p4223
I1
sS'contradict'
p4224
I1
sS'hunt'
p4225
I17
sS'dishonest'
p4226
I3
sS'50'
p4227
I17
sS'divers'
p4228
I1
sS'herend'
p4229
I1
sS'midshow'
p4230
I1
sS'sorvino'
p4231
I1
sS'digimon'
p4232
I4
sS'night'
p4233
I37
sS'hung'
p4234
I1
sS'hund'
p4235
I1
sS'delinqu'
p4236
I1
sS'56'
p4237
I1
sS'"sack'
p4238
I1
sS'spongebob'
p4239
I1
sS'orlando'
p4240
I1
sS'brangelin'
p4241
I1
sS'paltrow'
p4242
I7
sS'born'
p4243
I5
sS'donald'
p4244
I1
sS'mis-cast'
p4245
I1
sS'late-night'
p4246
I1
sS'hurley'
p4247
I1
sS'smarmy'
p4248
I2
sS'bord'
p4249
I3
sS'intellect'
p4250
I9
sS'orchid'
p4251
I1
sS'fartsy'
p4252
I1
sS'non-commissioned'
p4253
I1
sS'ear'
p4254
I42
sS'/'
p4255
I79
sS'"huh'
p4256
I1
sS'story-'
p4257
I1
sS'overcom'
p4258
I1
sS'over-used'
p4259
I1
sS'globet'
p4260
I1
sS'christmas'
p4261
I5
sS'tht'
p4262
I1
sS'posn'
p4263
I2
sS'plu'
p4264
I18
sS'who'
p4265
I297
sS'peel'
p4266
I1
sS'defend'
p4267
I1
sS'brawl'
p4268
I1
sS'corn'
p4269
I3
sS'view'
p4270
I48
sS'thrill-less'
p4271
I1
sS'plz'
p4272
I3
sS'thge'
p4273
I1
sS'discount'
p4274
I3
sS'corp'
p4275
I4
sS'geo-science'
p4276
I1
sS'post'
p4277
I12
sS'peev'
p4278
I1
sS'poss'
p4279
I45
sS'whomev'
p4280
I2
sS'plug'
p4281
I1
sS'chauvin'
p4282
I1
sS'eat'
p4283
I25
sS'cowboy'
p4284
I1
sS'plum'
p4285
I1
sS'surround'
p4286
I4
sS'gentlem'
p4287
I2
sS'opin'
p4288
I32
sS'guest'
p4289
I1
sS'sperat'
p4290
I1
sS'twitch'
p4291
I1
sS'tribut'
p4292
I1
sS'produc'
p4293
I51
sS'face-in-the-water'
p4294
I1
sS'dsiappoint'
p4295
I1
sS'od'
p4296
I9
sS'civil'
p4297
I4
sS'ahh'
p4298
I2
sS'decapit'
p4299
I1
sS'bound'
p4300
I2
sS'ppl'
p4301
I1
sS'scandinav'
p4302
I1
sS'over-acted'
p4303
I1
sS'aht'
p4304
I1
sS'opportun'
p4305
I5
sS'lewd'
p4306
I2
sVbount
p4307
I1
sS'hyperhypo'
p4308
I1
sS'giv'
p4309
I148
sVrely
p4310
I7
sS'wal'
p4311
I8
sS'wak'
p4312
I4
sS'crowd'
p4313
I5
sS'psychot'
p4314
I2
sS'waf'
p4315
I1
sS'wad'
p4316
I1
sS'overblown'
p4317
I2
sS'sunlight'
p4318
I1
sS'fight'
p4319
I40
sS'gig'
p4320
I2
sS'virgin'
p4321
I3
sS'now-a-days'
p4322
I1
sS'way'
p4323
I190
sS'wax'
p4324
I2
sS'quirky'
p4325
I2
sS'gim'
p4326
I2
sS'wat'
p4327
I25
sS'was'
p4328
I1785
sS'war'
p4329
I52
sS'lowest'
p4330
I6
sS'head'
p4331
I33
sS'altogeth'
p4332
I6
sS'excerpt'
p4333
I1
sS'heal'
p4334
I1
sS'hirsch'
p4335
I1
sS'uuuh'
p4336
I1
sS'reales'
p4337
I1
sS'somehow'
p4338
I8
sS'heav'
p4339
I2
sS'voorh'
p4340
I1
sS'hear'
p4341
I17
sS'maxin'
p4342
I1
sS'heap'
p4343
I4
sS'choreograph'
p4344
I2
sVunconvint
p4345
I4
sS'cheech'
p4346
I1
sS'reset'
p4347
I1
sS'high-quality'
p4348
I1
sS'eject'
p4349
I2
sS'friday'
p4350
I16
sS'supr'
p4351
I2
sS'mtv'
p4352
I5
sS'bargain'
p4353
I4
sS'anem'
p4354
I1
sS'-----ohio'
p4355
I1
sS'dubel'
p4356
I3
sS'complaint'
p4357
I3
sVnerdy
p4358
I3
sS'soldeir'
p4359
I1
sS'retir'
p4360
I4
sS'leaf'
p4361
I1
sS'tril'
p4362
I3
sS'trin'
p4363
I4
sS'flair--not'
p4364
I1
sS'enterpr'
p4365
I2
sS'fury'
p4366
I3
sS'request'
p4367
I1
sS'abstract'
p4368
I2
sS'manhat'
p4369
I8
sS'stallon'
p4370
I4
sS'trib'
p4371
I1
sS'shiney'
p4372
I1
sS'madonn'
p4373
I3
sS'cocain'
p4374
I1
sS'empath'
p4375
I1
sS'triv'
p4376
I2
sS'trip'
p4377
I25
sS'molf'
p4378
I1
sS'poodl'
p4379
I1
sS'assembl'
p4380
I2
sS'ni'
p4381
I2
sS'nonhon'
p4382
I1
sS'uncorrupt'
p4383
I1
sS'dying'
p4384
I5
sS'no'
p4385
I386
sS'tit'
p4386
I7
sS'panam'
p4387
I3
sS're-titled'
p4388
I1
sS'when'
p4389
I259
sS'tir'
p4390
I18
sS'til'
p4391
I7
sS'tim'
p4392
I371
sS'tin'
p4393
I2
sS'whew'
p4394
I2
sS'"when'
p4395
I1
sS'test'
p4396
I4
sS'tie'
p4397
I2
sS're-writing'
p4398
I1
sS'tig'
p4399
I2
sS'nt'
p4400
I4
sS'hundr'
p4401
I10
sS'cinim'
p4402
I1
sS'minldess'
p4403
I2
sS'downward'
p4404
I1
sS'phoenix'
p4405
I1
sS'macabr'
p4406
I1
sS'pg-13'
p4407
I6
sS'squ'
p4408
I2
sS'tappy'
p4409
I2
sS'bruckheim'
p4410
I4
sS'consid'
p4411
I45
sVexxceiv
p4412
I1
sS'gobbl'
p4413
I3
sS'stinkin'
p4414
I1
sS'bullet'
p4415
I3
sS'1800'
p4416
I1
sS'pefect'
p4417
I1
sS'time-travel'
p4418
I1
sS'oscar-winning'
p4419
I1
sS'm-o-v-i-e'
p4420
I1
sS'whalberg'
p4421
I1
sS'vietnam'
p4422
I1
sS'worse--it'
p4423
I1
sS'backward'
p4424
I1
sS'coach'
p4425
I1
sS'rol'
p4426
I56
sS'rom'
p4427
I36
sS'ron'
p4428
I2
sS'rob'
p4429
I21
sS'consum'
p4430
I2
sS'rod'
p4431
I1
sS'ouch'
p4432
I6
sS'rog'
p4433
I7
sS'snip'
p4434
I3
sS'big-time'
p4435
I1
sS'stumbl'
p4436
I2
sS'deprav'
p4437
I2
sS'ros'
p4438
I4
sS'rot'
p4439
I8
sS'row'
p4440
I2
sVhumy
p4441
I1
sS'foe'
p4442
I1
sS'1942'
p4443
I1
sS'graph'
p4444
I14
sS'1940'
p4445
I1
sS'flash'
p4446
I5
sS'gigl'
p4447
I6
sS'nacho'
p4448
I1
sS'humo'
p4449
I11
sS'rhythm'
p4450
I1
sS'brown'
p4451
I1
sS'sourc'
p4452
I2
sS'sloppy'
p4453
I4
sS'pro-american'
p4454
I1
sS'1492'
p4455
I1
sS'feel-good'
p4456
I1
sS'cook'
p4457
I2
sS'blast'
p4458
I1
sS'heston'
p4459
I2
sS'goofiest'
p4460
I1
sS'cool'
p4461
I36
sS'cunningham'
p4462
I1
sS'hour'
p4463
I75
sS'best-'
p4464
I1
sS'gilbre'
p4465
I1
sS'aaaaarrrrrggggghhhhh'
p4466
I1
sS'valentin'
p4467
I2
sS'reconcil'
p4468
I1
sS'gun'
p4469
I19
sS'gum'
p4470
I2
sS'gus'
p4471
I1
sS'p'
p4472
I7
sS'soooo'
p4473
I7
sS'so-bad-it'
p4474
I1
sS'quick'
p4475
I18
sS'guy'
p4476
I107
sS'electocut'
p4477
I1
sS'farrel'
p4478
I3
sS'cord'
p4479
I1
sS'hte'
p4480
I1
sS'plummet'
p4481
I1
sS'whoev'
p4482
I4
sS'regret'
p4483
I7
sS'porn'
p4484
I7
sVinconclud
p4485
I1
sS'bravo'
p4486
I1
sS'everytim'
p4487
I3
sS'colin'
p4488
I1
sS'cost'
p4489
I26
sS'alfr'
p4490
I2
sS'porp'
p4491
I1
sS'spin-off'
p4492
I1
sS'port'
p4493
I5
sS'posh'
p4494
I1
sS'bigbaby'
p4495
I2
sS'unsc'
p4496
I1
sS'dej'
p4497
I1
sS'uniform'
p4498
I3
sS'aux'
p4499
I1
sS'goer'
p4500
I2
sVreply
p4501
I2
sS'appeal'
p4502
I1
sS'529'
p4503
I1
sVsequ
p4504
I14
sVsatisfy
p4505
I2
sS'gawd'
p4506
I2
sS'catchprase-originating'
p4507
I1
sS'unimaginit'
p4508
I1
sS'doing'
p4509
I29
sS'leguizamo'
p4510
I1
sS'drug'
p4511
I13
sS'roddy'
p4512
I1
sS'entertain'
p4513
I46
sS'auberjonio'
p4514
I1
sS'computer-animated'
p4515
I1
sS'merky'
p4516
I1
sS'['
p4517
I8
sS'mald'
p4518
I1
sS'rooney'
p4519
I2
sS'buck'
p4520
I19
sS'jord'
p4521
I1
sS'fancy-pants'
p4522
I1
sS'thirty'
p4523
I2
sS'statu'
p4524
I2
sS'goldmemb'
p4525
I6
sS'backdrop'
p4526
I1
sS'dee'
p4527
I3
sS'legit'
p4528
I1
sS'whatsov'
p4529
I2
sS'paxton'
p4530
I1
sS'weird'
p4531
I10
sS'sleak'
p4532
I1
sS'regardless'
p4533
I4
sS'farth'
p4534
I1
sS'bullock'
p4535
I3
sS'angril'
p4536
I1
sS'fool'
p4537
I23
sS'fbi'
p4538
I4
sS'hyster'
p4539
I1
sS'peep'
p4540
I1
sS'market'
p4541
I7
sS'prem'
p4542
I17
sS'ipecac'
p4543
I1
sS'passerby'
p4544
I1
sS'concoct'
p4545
I2
sS'vivid'
p4546
I2
sS'anesthet'
p4547
I1
sS'pred'
p4548
I3
sS'pref'
p4549
I8
sS'suppl'
p4550
I1
sS'beckins'
p4551
I1
sS'msn'
p4552
I1
sS'andy'
p4553
I4
sS'pont'
p4554
I1
sS'schlock'
p4555
I2
sVpret
p4556
I1
sS'prev'
p4557
I4
sS'prep'
p4558
I4
sS'pres'
p4559
I19
sS'capit'
p4560
I3
sS'gentlemen"'
p4561
I1
sS'kerry'
p4562
I4
sS'horrorshow'
p4563
I1
sS'pseudo-historical'
p4564
I1
sS'club'
p4565
I5
sS'1960'
p4566
I1
sS'well-lit'
p4567
I1
sS'drown'
p4568
I2
sS'gwyne'
p4569
I3
sS'inhabit'
p4570
I1
sS'movie-going'
p4571
I1
sS'wal-mart'
p4572
I1
sS'cas'
p4573
I21
sS'car'
p4574
I122
sS'juda'
p4575
I1
sS'cap'
p4576
I5
sS'judg'
p4577
I8
sS'cav'
p4578
I2
sS'jude'
p4579
I1
sS'cat'
p4580
I18
sVreligy
p4581
I8
sS'boonton'
p4582
I1
sS'can'
p4583
I375
sS'cam'
p4584
I44
sS'cal'
p4585
I49
sS'tranp'
p4586
I1
sS'cab'
p4587
I1
sS'purpos'
p4588
I13
sS'cag'
p4589
I6
sS'slightest'
p4590
I7
sS'overpass'
p4591
I1
sS'occum'
p4592
I1
sS'stream'
p4593
I1
sS'heard'
p4594
I37
sS'stroke'
p4595
I2
sS'abort'
p4596
I6
sS'chin'
p4597
I2
sS'chil'
p4598
I3
sS'sharp'
p4599
I1
sS'unfortun'
p4600
I19
sS'contribut'
p4601
I1
sS'multipl'
p4602
I3
sS'bankrupt'
p4603
I1
sS'robinson'
p4604
I1
sS'1'
p4605
I63
sS'alway'
p4606
I27
sS'anyon'
p4607
I97
sS'recenty'
p4608
I1
sS'gar'
p4609
I1
sS'flano'
p4610
I1
sS'poign'
p4611
I1
sS'pa-thet-ic'
p4612
I1
sS'nonstop'
p4613
I1
sS'semi-funny'
p4614
I1
sVoccass
p4615
I2
sS'therby'
p4616
I1
sS'emilio'
p4617
I1
sS'southern'
p4618
I5
sS'lucky'
p4619
I3
sS'lancast'
p4620
I1
sS'bear'
p4621
I4
sS'1995'
p4622
I1
sS'voice-overs'
p4623
I1
sS'meteorolog'
p4624
I1
sS'escalad'
p4625
I1
sS'meand'
p4626
I4
sS'unsettl'
p4627
I1
sS'unorigin'
p4628
I4
sS'misrepres'
p4629
I1
sS'beatleman'
p4630
I1
sS'present--like'
p4631
I1
sS'favorit'
p4632
I15
sS'osborn'
p4633
I1
sS'inform'
p4634
I6
sS'combin'
p4635
I10
sS'gerard'
p4636
I1
sVoffend
p4637
I25
sS'kurt'
p4638
I2
sS'anaconda'
p4639
I1
sS'michel'
p4640
I2
sS'refund'
p4641
I3
sS'wothless'
p4642
I1
sS'stilt'
p4643
I1
sS'anticip'
p4644
I1
sS'colt'
p4645
I1
sS'approv'
p4646
I1
sS'divin'
p4647
I2
sS'brain'
p4648
I19
sS'cold'
p4649
I10
sS'dynam'
p4650
I1
sS'bacal'
p4651
I1
sS'sigourney'
p4652
I3
sS'feath'
p4653
I3
sS'handwrit'
p4654
I1
sS'window'
p4655
I2
sS'ly'
p4656
I2
sS'mediocr'
p4657
I7
sS'batm'
p4658
I5
sS'non'
p4659
I26
sS'freagin'
p4660
I1
sS'recal'
p4661
I10
sS'halt'
p4662
I1
sS'smash'
p4663
I1
sS'nod'
p4664
I1
sS'plotlin'
p4665
I5
sS'evoc'
p4666
I1
sS'overcrowd'
p4667
I1
sS'1991'
p4668
I1
sS'bilko'
p4669
I1
sS'flint'
p4670
I1
sS'1950'
p4671
I3
sS'sado-slasher'
p4672
I1
sS'wealthy'
p4673
I1
sS'not'
p4674
I809
sS'molass'
p4675
I1
sS'discust'
p4676
I1
sS'bath'
p4677
I1
sS'nop'
p4678
I4
sS'discuss'
p4679
I1
sS'nor'
p4680
I16
sS'aaaahhhhhhh'
p4681
I1
sS'wont'
p4682
I4
sS'lier'
p4683
I1
sS'term'
p4684
I4
sS'terl'
p4685
I1
sS'somth'
p4686
I1
sS'drop'
p4687
I15
sS'drov'
p4688
I2
sS'wond'
p4689
I53
sS'cerebr'
p4690
I1
sS'gangst'
p4691
I4
sS'terr'
p4692
I203
sS'wonk'
p4693
I2
sS'em'
p4694
I7
sS'el'
p4695
I11
sS'en'
p4696
I1
sS'ei'
p4697
I1
sS'eh'
p4698
I1
sS'replac'
p4699
I4
sS'eg'
p4700
I3
sS'torch'
p4701
I3
sS'policem'
p4702
I1
sS'sprinkle'
p4703
I1
sS'eb'
p4704
I2
sS'gofig'
p4705
I1
sS'sandwich'
p4706
I1
sS'ey'
p4707
I19
sVex
p4708
I22
sS'begun'
p4709
I2
sS'year'
p4710
I111
sS'dench'
p4711
I1
sS'ew'
p4712
I1
sS'ev'
p4713
I737
sS'eq'
p4714
I10
sS'ep'
p4715
I13
sS'es'
p4716
I1
sS'er'
p4717
I11
sS'croft'
p4718
I3
sS'shown'
p4719
I12
sS'100k'
p4720
I1
sS'uncr'
p4721
I4
sS'dredg'
p4722
I1
sS'irony'
p4723
I1
sS'magazin'
p4724
I2
sS'g-rated'
p4725
I3
sS'gram'
p4726
I3
sS'cary'
p4727
I2
sS'glimps'
p4728
I1
sS'wan'
p4729
I1
sS'carr'
p4730
I1
sVsavy
p4731
I1
sS'carp'
p4732
I3
sS'film-makers'
p4733
I1
sS'carv'
p4734
I2
sS'argu'
p4735
I3
sS'hulk'
p4736
I6
sS'quart'
p4737
I1
sS'unremark'
p4738
I3
sS'theorn'
p4739
I1
sS'delet'
p4740
I1
sS'carn'
p4741
I2
sS'rebel'
p4742
I4
sS'carc'
p4743
I1
sS'llock'
p4744
I1
sS'screams'
p4745
I1
sS'card'
p4746
I5
sS'slow-paced'
p4747
I1
sS'nauc'
p4748
I1
sS'couldn'
p4749
I81
sS'miss'
p4750
I34
sS'19th-century'
p4751
I1
sS'shu'
p4752
I2
sS'refus'
p4753
I4
sS'honest'
p4754
I26
sS'janu'
p4755
I1
sS'scarry'
p4756
I5
sS'yun'
p4757
I1
sS'completley'
p4758
I1
sS'factor-'
p4759
I1
sS'refug'
p4760
I1
sS'profess'
p4761
I7
sS'imposs'
p4762
I6
sS'1000'
p4763
I4
sS'origin'
p4764
I83
sS'feign'
p4765
I1
sVsuspend
p4766
I2
sS'madam'
p4767
I1
sS'yourself'
p4768
I24
sVclumsy
p4769
I2
sS'aagghhwwww'
p4770
I1
sS'suspens'
p4771
I19
sS'fi'
p4772
I3
sS'ring'
p4773
I9
sS'pokemon'
p4774
I11
sS'tomorrow'
p4775
I3
sS'yourselv'
p4776
I2
sS'sheep'
p4777
I2
sS'ian'
p4778
I1
sS'sheet'
p4779
I1
sS'action-packed'
p4780
I1
sS'imit'
p4781
I4
sS'caught'
p4782
I3
sS'rosco'
p4783
I1
sS'dude-this'
p4784
I1
sS'yik'
p4785
I3
sS'adject'
p4786
I1
sS'breez'
p4787
I1
sS'screencaps'
p4788
I1
sS'friend'
p4789
I46
sS'artless'
p4790
I1
sS'hue'
p4791
I1
sS'face-in-the-sand'
p4792
I1
sS'hug'
p4793
I25
sS'pomp'
p4794
I2
sS'six-pack'
p4795
I2
sS'that'
p4796
I1410
sS'hum'
p4797
I89
sS'hun'
p4798
I1
sS'austral'
p4799
I3
sS'huh'
p4800
I5
sS'coltrain'
p4801
I1
sVqual
p4802
I22
sS'armegeddon'
p4803
I2
sS'quak'
p4804
I1
sS'wav'
p4805
I5
sS'x2'
p4806
I1
sS'ill-advised'
p4807
I1
sS'than'
p4808
I201
sS'winslet'
p4809
I2
sS'serv'
p4810
I10
sS'appleg'
p4811
I4
sS'gil'
p4812
I1
sS'lmao'
p4813
I2
sS'seuss'
p4814
I3
sS'crack'
p4815
I6
sVsery
p4816
I85
sS'serg'
p4817
I2
sS'r'
p4818
I7
sS'cheesebal'
p4819
I2
sS'posit'
p4820
I12
sS'uhhhh'
p4821
I1
sS'pre'
p4822
I2
sS'ang'
p4823
I4
sS'pra'
p4824
I11
sS'angel'
p4825
I4
sS'slav'
p4826
I13
sVrooky
p4827
I2
sS'slat'
p4828
I3
sS'nah-uh'
p4829
I1
sS'pri'
p4830
I2
sS'taseless'
p4831
I1
sS'slap'
p4832
I3
sS'rosebud'
p4833
I1
sS'ant'
p4834
I8
sS'redford'
p4835
I2
sS'stiffest'
p4836
I1
sS'slam'
p4837
I2
sS'rent'
p4838
I74
sS'paint-by-numbers'
p4839
I1
sS'tylenol'
p4840
I1
sS'breakfast'
p4841
I1
sS'skywalk'
p4842
I1
sS'slab'
p4843
I1
sS'stolid'
p4844
I1
sS'wantab'
p4845
I1
sS'fruitcak'
p4846
I1
sS'blund'
p4847
I1
sS'deuc'
p4848
I1
sS'omnipres'
p4849
I1
sS'satellit'
p4850
I1
sS'titland'
p4851
I1
sS'blunt'
p4852
I1
sS'surf'
p4853
I2
sS'surg'
p4854
I1
sS'begin'
p4855
I51
sS'prick'
p4856
I1
sS'tornado'
p4857
I4
sS'farley'
p4858
I4
sS'rankin'
p4859
I1
sS'disturbimg'
p4860
I1
sS'apocalypt'
p4861
I1
sS'frig'
p4862
I1
sS']'
p4863
I7
sS'icon'
p4864
I1
sS'family-friend'
p4865
I3
sS'rescu'
p4866
I8
sS'adopt'
p4867
I1
sS'steady'
p4868
I1
sS'hungry'
p4869
I2
sS'crossov'
p4870
I2
sS'fantasyland'
p4871
I1
sVanct
p4872
I2
sS'sunset'
p4873
I1
sS'trul'
p4874
I1
sS'cheap'
p4875
I26
sS'fifty'
p4876
I1
sS'troy'
p4877
I2
sS'exitsign'
p4878
I1
sS'hack'
p4879
I6
sS'spacey'
p4880
I3
sS'receee'
p4881
I1
sS'catfight'
p4882
I1
sS'ground'
p4883
I6
sS'aint'
p4884
I3
sS'terrentino'
p4885
I1
sS'snack'
p4886
I1
sS'nadir'
p4887
I1
sS'stair'
p4888
I2
sS'jolt'
p4889
I1
sS'stud'
p4890
I8
sS'testic'
p4891
I1
sS'wood'
p4892
I20
sVsupery
p4893
I3
sS'shrill'
p4894
I1
sS'waddl'
p4895
I1
sS'masac'
p4896
I1
sS'tayl'
p4897
I1
sS'unpubl'
p4898
I1
sS'cannon'
p4899
I1
sS'samuel'
p4900
I5
sVnobl
p4901
I2
sS'loath'
p4902
I1
sS'cannot'
p4903
I33
sS'dyk'
p4904
I1
sS'brit'
p4905
I18
sS'wahlberg'
p4906
I3
sS'hellooooo'
p4907
I1
sS'"revolting"'
p4908
I1
sS'seldom'
p4909
I2
sS'hostil'
p4910
I2
sVunscrib
p4911
I1
sS'doo-dad'
p4912
I1
sS'amittyvil'
p4913
I1
sS'raunchy'
p4914
I5
sS'aband'
p4915
I1
sS'tent'
p4916
I3
sS'husband'
p4917
I24
sS'concert'
p4918
I1
sS'burst'
p4919
I1
sS'unfin'
p4920
I1
sS'anti-aryan'
p4921
I1
sVbril
p4922
I16
sS'asleep'
p4923
I56
sS'div'
p4924
I1
sS'stanley'
p4925
I3
sS'sport'
p4926
I4
sS'mcdonalds'
p4927
I1
sS'concern'
p4928
I5
sS'detect'
p4929
I2
sS'camaro'
p4930
I1
sS'review'
p4931
I37
sS'hist'
p4932
I54
sS'excorsist'
p4933
I1
sS'3'
p4934
I43
sS'wayn'
p4935
I2
sS'between'
p4936
I32
sS'ambivil'
p4937
I1
sS'duchovny'
p4938
I1
sS'zippy'
p4939
I1
sS'hurtl'
p4940
I1
sS'comp'
p4941
I19
sS'bump'
p4942
I3
sS'flow'
p4943
I2
sS'good-looking'
p4944
I1
sS'20'
p4945
I24
sS'comb'
p4946
I3
sS'rateital'
p4947
I3
sS'quasi-ranger'
p4948
I1
sS'daddy'
p4949
I8
sS'christiansen'
p4950
I1
sS'stupidest'
p4951
I16
sS'wra'
p4952
I1
sS'cub'
p4953
I5
sS'contract'
p4954
I2
sS'pronto'
p4955
I1
sS'mont'
p4956
I1
sS'inconsist'
p4957
I2
sS'hearthrob'
p4958
I1
sS'berry'
p4959
I11
sS'way-'
p4960
I1
sS'gerald'
p4961
I1
sS'swil'
p4962
I1
sS'prequel'
p4963
I1
sS'magn'
p4964
I2
sS'duty'
p4965
I2
sS'pakistan'
p4966
I1
sS'ad-libb'
p4967
I1
sS'key'
p4968
I2
sVglant
p4969
I2
sS'pow'
p4970
I28
sS'pot'
p4971
I18
sS'inspir'
p4972
I5
sS'por'
p4973
I2
sS'period'
p4974
I12
sS'insist'
p4975
I3
sS'29'
p4976
I2
sS'60'
p4977
I2
sS'poo'
p4978
I14
sS'exploit'
p4979
I8
sS'pseudo-classic'
p4980
I1
sS'colon'
p4981
I1
sS'pok'
p4982
I4
sS'baddddd'
p4983
I1
sS'69'
p4984
I1
sS'alongsid'
p4985
I1
sS'turkey'
p4986
I19
sVsess
p4987
I1
sS'jok'
p4988
I77
sS'coupl'
p4989
I35
sS'howard'
p4990
I2
sS'unwitty'
p4991
I1
sS'carey'
p4992
I8
sS'tie-dyed'
p4993
I1
sS'brittney'
p4994
I1
sS'illog'
p4995
I4
sS'toss'
p4996
I3
sS'jerky'
p4997
I4
sS'aids-infected'
p4998
I1
sS'trig'
p4999
I1
sS'homosexuality-'
p5000
I1
sS'bowlingfortru'
p5001
I1
sS'dfficult'
p5002
I1
sS'tasteless'
p5003
I9
sS'emphas'
p5004
I1
sS'dracul'
p5005
I6
sS'amand'
p5006
I5
sS'andrew'
p5007
I1
sS'raid'
p5008
I5
sS'spirit'
p5009
I7
sS'countless'
p5010
I3
sS'shockingly-inappropirate'
p5011
I2
sS'myself'
p5012
I39
sS'amend'
p5013
I1
sS'stereotyp'
p5014
I12
sS'cash'
p5015
I10
sS'arnold'
p5016
I6
sS'trick'
p5017
I4
sS'cast'
p5018
I50
sS'dorky'
p5019
I1
sS'winkl'
p5020
I2
sS'scub'
p5021
I1
sS'plaeas'
p5022
I1
sS'thesp'
p5023
I1
sS'coolest'
p5024
I4
sS'bogart'
p5025
I1
sS'projectil'
p5026
I1
sS'vest'
p5027
I1
sS'hartnet'
p5028
I3
sS'sci-f'
p5029
I29
sS'insomn'
p5030
I2
sVsusp
p5031
I3
sS'bias'
p5032
I2
sS'eras'
p5033
I2
sVsoldy
p5034
I11
sS'trit'
p5035
I1
sVsusy
p5036
I1
sS'somebody'
p5037
I11
sVhent
p5038
I2
sS'magnitud'
p5039
I1
sS'worry'
p5040
I1
sS'cul'
p5041
I1
sS'develop'
p5042
I30
sS'neith'
p5043
I9
sS'etc'
p5044
I21
sS'bowl'
p5045
I2
sS'check'
p5046
I10
sS'neverend'
p5047
I1
sS'food'
p5048
I13
sS'squadroom'
p5049
I1
sS'html'
p5050
I2
sS'white--wer'
p5051
I1
sS'hermit'
p5052
I3
sS'week'
p5053
I12
sS'persona'
p5054
I1
sS'sleazest'
p5055
I1
sS'mockery'
p5056
I4
sS'applaud'
p5057
I1
sS'someon'
p5058
I53
sS'devoid'
p5059
I5
sS'drivel'
p5060
I10
sS'fruit'
p5061
I2
sS'beleiv'
p5062
I4
sS'loreen'
p5063
I1
sS'cartoon'
p5064
I19
sS'eith'
p5065
I37
sS'handsom'
p5066
I2
sS'traps'
p5067
I1
sVdisassocy
p5068
I1
sS'roll-your-eyes'
p5069
I1
sVduply
p5070
I1
sS'kungfu'
p5071
I1
sS'hustl'
p5072
I1
sS'without'
p5073
I45
sS'pervad'
p5074
I1
sS'tload'
p5075
I1
sS'anthropomorph'
p5076
I1
sS'newsflash'
p5077
I1
sS'model'
p5078
I6
sS'reward'
p5079
I2
sS'bettany'
p5080
I1
sS'beer-drinking'
p5081
I1
sS'flakey'
p5082
I1
sS'satir'
p5083
I5
sS'venu'
p5084
I1
sS'clog'
p5085
I1
sS'77'
p5086
I1
sS'tip'
p5087
I4
sS'clon'
p5088
I6
sS'actress'
p5089
I27
sS'chick-flickism'
p5090
I1
sS'unclear'
p5091
I3
sS'kill'
p5092
I1
sS'harrison'
p5093
I6
sS'clos'
p5094
I21
sS'touch'
p5095
I6
sS'n'
p5096
I8
sS'goriest'
p5097
I1
sS'cloy'
p5098
I1
sS'halfway'
p5099
I5
sS'blow'
p5100
I17
sS'wher'
p5101
I105
sS'death'
p5102
I12
sS'europ'
p5103
I1
sS'tooooo'
p5104
I1
sS'pornograhpy'
p5105
I1
sS'leth'
p5106
I1
sS'senseless'
p5107
I11
sS'reccomend'
p5108
I2
sS'irrespons'
p5109
I2
sS'bordom'
p5110
I1
sS'scheduled'
p5111
I2
sS'supposit'
p5112
I1
sS'stunk'
p5113
I8
sS'onscreen'
p5114
I1
sS'read'
p5115
I62
sS'amc'
p5116
I1
sVamb
p5117
I1
sS'ditz'
p5118
I1
sS'dismemb'
p5119
I1
sS'oevral'
p5120
I1
sS'understandable--just'
p5121
I1
sS'detract'
p5122
I3
sS'nemes'
p5123
I3
sS'stunt'
p5124
I5
sS'reav'
p5125
I1
sS'lady'
p5126
I9
sS'divorc'
p5127
I2
sS'katherin'
p5128
I1
sS'walt'
p5129
I3
sS'daught'
p5130
I13
sS'scatalog'
p5131
I1
sS'postcard'
p5132
I1
sS'patrick'
p5133
I1
sS'incest'
p5134
I1
sS't'
p5135
I1058
sS'substandard'
p5136
I1
sS'-dastardly'
p5137
I1
sS'all-'
p5138
I2
sS'good-heartedness'
p5139
I1
sS'laugh'
p5140
I107
sS'pleeez'
p5141
I1
sS'ewww'
p5142
I1
sS'hackm'
p5143
I4
sS'robbin'
p5144
I3
sS'freez'
p5145
I1
sS'squirm'
p5146
I2
sS'mood'
p5147
I5
sS'slick'
p5148
I1
sS'landscap'
p5149
I1
sS'moon'
p5150
I2
sS'nutty'
p5151
I1
sS'moor'
p5152
I33
sS'freem'
p5153
I3
sS'dies'
p5154
I1
sS'econom'
p5155
I3
sS'unbeliev'
p5156
I24
sS'redic'
p5157
I1
sS'holywood'
p5158
I1
sS'sarandon'
p5159
I1
sS'novocain'
p5160
I1
sVangy
p5161
I1
sS'morphe'
p5162
I1
sS'scriptwriters'
p5163
I1
sS'strained'
p5164
I1
sS'artic'
p5165
I2
sS'habl'
p5166
I1
sS'sixty'
p5167
I2
sS'vilain'
p5168
I1
sS'sloth-like'
p5169
I1
sS'throw'
p5170
I15
sS'gigalo'
p5171
I1
sS'comparison'
p5172
I5
sS'jeez'
p5173
I2
sS'ol'
p5174
I8
sS'ok'
p5175
I31
sS'oi'
p5176
I1
sS'oh'
p5177
I63
sS'jeep'
p5178
I3
sS'of'
p5179
I2547
sS'chok'
p5180
I2
sS'oc'
p5181
I3
sS'brittany'
p5182
I1
sS'cring'
p5183
I1
sS'catherin'
p5184
I3
sS'chor'
p5185
I1
sS'chos'
p5186
I6
sS'wolf'
p5187
I2
sS'chou'
p5188
I1
sS'oy'
p5189
I2
sS'chow'
p5190
I1
sS'ow'
p5191
I5
sS'ov'
p5192
I134
sS'fath'
p5193
I16
sS'assassin'
p5194
I1
sS'or'
p5195
I338
sS'whitnail'
p5196
I1
sS'op'
p5197
I23
sS'garn'
p5198
I5
sS'exept'
p5199
I1
sS'gard'
p5200
I2
sS'youd'
p5201
I1
sS'garb'
p5202
I60
sS'unsuccful'
p5203
I1
sS'gary'
p5204
I7
sS'burton'
p5205
I4
sS'england'
p5206
I1
sS'nurs'
p5207
I8
sS'sophom'
p5208
I2
sS'loc'
p5209
I10
sS'unap'
p5210
I2
sS'loa'
p5211
I2
sS'budw'
p5212
I1
sS'ameil'
p5213
I1
sS'craptacual'
p5214
I1
sS'starl'
p5215
I1
sS'strictly'
p5216
I2
sS'lon'
p5217
I4
sS'lol'
p5218
I7
sS'christianity'
p5219
I1
sS'lor'
p5220
I1
sS'los'
p5221
I25
sS'fascin'
p5222
I3
sS'lov'
p5223
I136
sS'low'
p5224
I35
sS'lot'
p5225
I66
sS'lou'
p5226
I2
sS'loy'
p5227
I2
sS'fish'
p5228
I8
sS'pre-teen'
p5229
I1
sS'tight'
p5230
I3
sS'timelin'
p5231
I1
sS'jud'
p5232
I8
sS'regard'
p5233
I5
sVconcess
p5234
I1
sS'jul'
p5235
I14
sS'idea'
p5236
I7
sS'jur'
p5237
I2
sS'jus'
p5238
I2
sS'burrn'
p5239
I1
sS'shootout'
p5240
I1
sS'recoil'
p5241
I1
sS'allright'
p5242
I1
sS'f-word'
p5243
I5
sS'fraud'
p5244
I3
sS'bow-wow'
p5245
I1
sS'bucket'
p5246
I2
sS'arlington'
p5247
I1
sVfreddy
p5248
I16
sS'one-star'
p5249
I2
sS'spectr'
p5250
I1
sS'unexcit'
p5251
I2
sS'sleazy'
p5252
I2
sS'>'
p5253
I1
sS'mongoloid'
p5254
I1
sS'chaplin'
p5255
I1
sS'toilet'
p5256
I8
sS'mutin'
p5257
I1
sVsensitil
p5258
I1
sS'nerv'
p5259
I3
sS'vulg'
p5260
I9
sS'crude-fest'
p5261
I1
sS'salem'
p5262
I1
sS'nerm'
p5263
I1
sS'russel'
p5264
I8
sS'solem'
p5265
I1
sS'skinhead'
p5266
I1
sS'rect'
p5267
I1
sS'abyss'
p5268
I2
sS'krug'
p5269
I2
sS'idiot'
p5270
I34
sS'yod'
p5271
I1
sS'compel'
p5272
I8
sS'green'
p5273
I13
sS'valid'
p5274
I2
sS'compet'
p5275
I5
sS'ign'
p5276
I11
sS'you'
p5277
I762
sS'trash'
p5278
I57
sS'abysm'
p5279
I3
sS'poor'
p5280
I74
sS'poop'
p5281
I11
sS'phys'
p5282
I6
sS'60s'
p5283
I3
sS'cinderell'
p5284
I1
sS'symbol'
p5285
I4
sS'carpentet'
p5286
I1
sS'drift'
p5287
I2
sS'sideburn'
p5288
I1
sS'anaem'
p5289
I1
sS'peak'
p5290
I1
sS'kingsley'
p5291
I1
sS'polak'
p5292
I1
sS'pooh'
p5293
I1
sS'hms'
p5294
I1
sS'peac'
p5295
I5
sS'pool'
p5296
I3
sS'reduc'
p5297
I2
sS'philosoph'
p5298
I2
sS'osmet'
p5299
I2
sS'streisand'
p5300
I2
sS'invest'
p5301
I4
sS'inevit'
p5302
I1
sS'carlin'
p5303
I1
sS'coke-bottl'
p5304
I1
sS'vineg'
p5305
I1
sS'degrad'
p5306
I2
sS'kutch'
p5307
I2
sS'strings'
p5308
I1
sS'talentless'
p5309
I2
sS'diss'
p5310
I2
sS'dist'
p5311
I2
sS'stlye'
p5312
I1
sS'reinstitut'
p5313
I1
sS'lack'
p5314
I35
sS'alb'
p5315
I2
sS'ala'
p5316
I1
sS'smel'
p5317
I5
sS'langaug'
p5318
I1
sValy
p5319
I21
sS'messy'
p5320
I3
sS'follow'
p5321
I29
sS'screenit'
p5322
I1
sS'dism'
p5323
I2
sS'monty'
p5324
I3
sS'hmmm'
p5325
I2
sS'forsak'
p5326
I1
sS'foxxy'
p5327
I1
sS'chain'
p5328
I4
sS'jessic'
p5329
I1
sS'gymnast'
p5330
I1
sS'embarras'
p5331
I5
sS'inaud'
p5332
I1
sS'init'
p5333
I1
sS'program'
p5334
I1
sS'fountain'
p5335
I2
sS'irishgit'
p5336
I3
sS'vers'
p5337
I2
sS'celebr'
p5338
I3
sS'masquerad'
p5339
I1
sVvert
p5340
I44
sS'song'
p5341
I20
sS'very'
p5342
I236
sS'christophor'
p5343
I1
sS'sonj'
p5344
I1
sS'fav'
p5345
I10
sS'mph'
p5346
I2
sS'focus'
p5347
I7
sS'fak'
p5348
I21
sS'hypocrit'
p5349
I2
sS'fai'
p5350
I4
sS'fan'
p5351
I63
sS'mps'
p5352
I1
sS'fal'
p5353
I49
sS'fam'
p5354
I9
sS'fab'
p5355
I1
sS'sony'
p5356
I1
sS'ticket'
p5357
I12
sS'binoch'
p5358
I1
sS'fad'
p5359
I2
sS'and'
p5360
I2741
sS'eug'
p5361
I1
sS'roy'
p5362
I1
sS'--'
p5363
I32
sS'list'
p5364
I46
sS'-5'
p5365
I1
sS'-1'
p5366
I1
sS'crummiest'
p5367
I1
sS'-8'
p5368
I1
sS'insta-freeze'
p5369
I1
sS'scientolog'
p5370
I3
sS'teh'
p5371
I1
sS'pul'
p5372
I8
sS'tel'
p5373
I72
sS'ten'
p5374
I22
sS'tea'
p5375
I1
sS'streets'
p5376
I2
sS'ted'
p5377
I5
sS'tee'
p5378
I6
sS'recirc'
p5379
I1
sS'bandera'
p5380
I5
sS'reinl'
p5381
I1
sS'design'
p5382
I4
sVoversimpl
p5383
I1
sS'ter'
p5384
I13
sS'unctu'
p5385
I1
sS'osc'
p5386
I21
sS'rath'
p5387
I46
sS'sug'
p5388
I4
sS'sue'
p5389
I1
sS'gunm'
p5390
I1
sS'sub'
p5391
I2
sS'defin'
p5392
I9
sS'sun'
p5393
I1
sS'sum'
p5394
I19
sS'cheesey'
p5395
I1
sS'brief'
p5396
I4
sS'suv'
p5397
I1
sS'sus'
p5398
I1
sS'sur'
p5399
I50
sS'sup'
p5400
I7
sS'consecut'
p5401
I1
sS'whal'
p5402
I1
sS'discern'
p5403
I1
sVnant
p5404
I3
sS'rhet'
p5405
I1
sS'sux'
p5406
I1
sS'cannib'
p5407
I4
sS'christian'
p5408
I8
sS'hackney'
p5409
I1
sS'hoolywood'
p5410
I1
sVdecid
p5411
I25
sS'red-brown'
p5412
I1
sS'shouldn'
p5413
I15
sS'middl'
p5414
I10
sS'trunk'
p5415
I1
sS'ver'
p5416
I2
sS'goodby'
p5417
I2
sS'iraq'
p5418
I6
sS'b5644om'
p5419
I1
sS'tragedy'
p5420
I3
sS'llam'
p5421
I1
sS'rork'
p5422
I1
sS'ahead'
p5423
I4
sS'verry'
p5424
I5
sS'extremem'
p5425
I1
sS'creepy'
p5426
I12
sS'over-hyped'
p5427
I3
sS'whiny'
p5428
I1
sS'chaarct'
p5429
I1
sS'amount'
p5430
I9
sS'aflac'
p5431
I1
sS'adv'
p5432
I19
sS'samar'
p5433
I2
sS'dangr'
p5434
I1
sS'co-workers'
p5435
I1
sS'eeeewwwww'
p5436
I1
sS'screens'
p5437
I2
sS'dirk'
p5438
I1
sS'purchas'
p5439
I1
sS'fourth-rate'
p5440
I1
sS'famili'
p5441
I4
sS'vey'
p5442
I1
sS'1900'
p5443
I1
sS'smal'
p5444
I14
sS'khan'
p5445
I1
sS'mulholland'
p5446
I1
sS'wield'
p5447
I1
sS'charct'
p5448
I1
sS'formul'
p5449
I4
sS'containm'
p5450
I1
sS'dino'
p5451
I1
sS'demo'
p5452
I1
sS'rustin'
p5453
I1
sS'stand-up'
p5454
I1
sS'reattach'
p5455
I1
sS'flat'
p5456
I12
sS'flaw'
p5457
I4
sS'flav'
p5458
I1
sS'yuck'
p5459
I8
sS'donnel'
p5460
I1
sS'flar'
p5461
I1
sS'glar'
p5462
I2
sS'tumbl'
p5463
I1
sS'apostl'
p5464
I1
sS'flay'
p5465
I1
sS'faucet'
p5466
I2
sS'alltim'
p5467
I1
sS'flag'
p5468
I4
sS'stick'
p5469
I31
sS'repet'
p5470
I2
sS'known'
p5471
I8
sS'mellow'
p5472
I1
sS'hurry'
p5473
I1
sS'tru'
p5474
I85
sS'glad'
p5475
I16
sS'actua'
p5476
I1
sS'palistin'
p5477
I1
sS'historc'
p5478
I1
sS'oversight'
p5479
I1
sS'anarch'
p5480
I1
sS'self-sacrifice'
p5481
I1
sS'soderburgh'
p5482
I1
sS'rate-its'
p5483
I1
sS'v'
p5484
I2
sS'co-host'
p5485
I1
sS'vu'
p5486
I1
sS'againest'
p5487
I1
sS'gardener"'
p5488
I1
sS'18th-'
p5489
I1
sS'coop'
p5490
I1
sS'teenage-wannab'
p5491
I1
sS'pond'
p5492
I3
sS'bloodless'
p5493
I1
sS'munst'
p5494
I1
sS'bowmp-ba-bowmp'
p5495
I1
sS'cours'
p5496
I34
sS'court'
p5497
I2
sS'goal'
p5498
I2
sS'divid'
p5499
I2
sS'anoth'
p5500
I110
sS'townshend'
p5501
I1
sS'snippet'
p5502
I1
sS'reject'
p5503
I1
sS'goat'
p5504
I1
sS'ransom'
p5505
I1
sS'fr'
p5506
I1
sS'shouldnt'
p5507
I2
sS'okay'
p5508
I23
sS'wats'
p5509
I1
sS'fx'
p5510
I8
sS'cancun'
p5511
I1
sS'sneak'
p5512
I2
sS'reflect'
p5513
I3
sS'idiocy'
p5514
I1
sS'catalog'
p5515
I2
sS'numb'
p5516
I18
sS'gasp'
p5517
I1
sS'rudy'
p5518
I1
sS'nothinig'
p5519
I1
sS'obi-wan'
p5520
I1
sS'a'
p5521
I2856
sS'sc-fi'
p5522
I1
sS'humbug'
p5523
I1
sS'short'
p5524
I17
sS'caug'
p5525
I1
sS'stone-faced'
p5526
I1
sS'fashz'
p5527
I1
sS'marlon'
p5528
I2
sS'keif'
p5529
I1
sS'strutting'
p5530
I1
sS'caus'
p5531
I26
sS'genuflect'
p5532
I1
sS'ego'
p5533
I3
sS'dread'
p5534
I18
sS'hobbit'
p5535
I3
sS'caut'
p5536
I1
sVbarby
p5537
I1
sS'dream'
p5538
I13
sS'grandm'
p5539
I1
sS'help'
p5540
I28
sS'hels'
p5541
I5
sS'sooo'
p5542
I4
sS'soon'
p5543
I10
sS'held'
p5544
I5
sS'isnt'
p5545
I3
sS'uninterst'
p5546
I1
sS'hell'
p5547
I5
sS'"it'
p5548
I1
sS'mam'
p5549
I1
sS'foxx'
p5550
I1
sS'pray'
p5551
I4
sS'rikk'
p5552
I1
sS'resort'
p5553
I4
sS'dross'
p5554
I1
sS'scot'
p5555
I4
sS'scor'
p5556
I11
sS'exchang'
p5557
I1
sS'over-all'
p5558
I1
sS'bout'
p5559
I2
sS'propagand'
p5560
I19
sS'might'
p5561
I34
sS'airtim'
p5562
I1
sS'wouldn'
p5563
I28
sS'return'
p5564
I7
sS'yo'
p5565
I178
sS'ya'
p5566
I6
sS'cem'
p5567
I1
sS'cel'
p5568
I2
sS'ye'
p5569
I33
sS'vomit'
p5570
I16
sS'cer'
p5571
I1
sS'foot'
p5572
I7
sS'looney'
p5573
I1
sS'vaughn'
p5574
I1
sS'bollywood'
p5575
I1
sS'braindead'
p5576
I1
sS'puuuuleeez'
p5577
I1
sS'craven-like'
p5578
I1
sS'level'
p5579
I8
sS'did'
p5580
I194
sS'undertak'
p5581
I1
sS'teas'
p5582
I3
sS'ceas'
p5583
I1
sS'fairy'
p5584
I1
sS's-good'
p5585
I1
sVheavy
p5586
I6
sS'neil'
p5587
I1
sS'weight'
p5588
I2
sS'needless'
p5589
I1
sS'ooooohhhhh'
p5590
I1
sS'wacky'
p5591
I1
sS'expect'
p5592
I61
sS'inflict'
p5593
I2
sS'beyond'
p5594
I34
sS'raymond'
p5595
I1
sS'alcohol'
p5596
I2
sS'join'
p5597
I5
sS'shortcom'
p5598
I1
sS'crapy'
p5599
I2
sS'robert'
p5600
I25
sS'myst'
p5601
I1
sS'hili'
p5602
I1
sS'half-way'
p5603
I2
sS'britsih'
p5604
I1
sS'sustain'
p5605
I1
sS'cigaret'
p5606
I1
sS'7'
p5607
I14
sS'plant'
p5608
I2
sS'predispos'
p5609
I1
sS'pun'
p5610
I10
sS'drink'
p5611
I3
sS'post-walt'
p5612
I1
sS'puk'
p5613
I9
sS'chines'
p5614
I3
sS'gut'
p5615
I8
sS'snuggl'
p5616
I1
sS'pub'
p5617
I1
sS'hepburn'
p5618
I1
sS'reason'
p5619
I57
sS'housew'
p5620
I1
sS'prison-guard-with-a-heart'
p5621
I1
sS'put'
p5622
I68
sS'teach'
p5623
I7
sS'ash'
p5624
I1
sS'stepbroth'
p5625
I1
sS'bask'
p5626
I1
sS'bash'
p5627
I1
sS'stult'
p5628
I2
sS'thrown'
p5629
I9
sS'launch'
p5630
I1
sS'unorign'
p5631
I2
sS'perhap'
p5632
I18
sS'escep'
p5633
I1
sS'kung'
p5634
I1
sS'threat'
p5635
I2
sS'daisy'
p5636
I2
sS'undergo'
p5637
I1
sS'hewit'
p5638
I5
sS'singleton'
p5639
I1
sS'mr'
p5640
I23
sVpretenty
p5641
I13
sS'feel'
p5642
I86
sS'promedio'
p5643
I1
sS'dink'
p5644
I1
sS'feet'
p5645
I3
sS'sympathy'
p5646
I4
sS'uninterest'
p5647
I11
sS'bland'
p5648
I6
sS'mist'
p5649
I2
sS'splattered'
p5650
I1
sS'coen'
p5651
I7
sS'scrips'
p5652
I1
sS'moan'
p5653
I2
sS'story'
p5654
I188
sS'"'
p5655
I8
sS'script'
p5656
I53
sS'interact'
p5657
I3
sS'fraggl'
p5658
I1
sS'flimsy'
p5659
I2
sS'norweg'
p5660
I1
sS'trend'
p5661
I7
sVeddy
p5662
I4
sS'storm'
p5663
I8
sS'bonk'
p5664
I1
sS'syrup'
p5665
I1
sS'pandor'
p5666
I1
sS'behind'
p5667
I14
sS'smile-worthy'
p5668
I1
sS'bowel'
p5669
I2
sS'hammy'
p5670
I1
sS'scooby'
p5671
I2
sS'mech'
p5672
I1
sS'boredom'
p5673
I3
sS'f--k'
p5674
I1
sS'nca'
p5675
I1
sS'uncut'
p5676
I1
sS'king'
p5677
I14
sS'kind'
p5678
I60
sS'5-star'
p5679
I1
sS'sta'
p5680
I1
sS'whenev'
p5681
I4
sS'remot'
p5682
I8
sS'disagr'
p5683
I1
sS'remov'
p5684
I3
sVdant
p5685
I25
sS'grey'
p5686
I2
sS'purposeless'
p5687
I1
sS'folkl'
p5688
I1
sS'bridg'
p5689
I6
sS'architect'
p5690
I1
sS'attorney'
p5691
I1
sS'wrasslin'
p5692
I1
sS'dang'
p5693
I5
sS'toward'
p5694
I13
sS'rahhhh'
p5695
I1
sS'risky'
p5696
I2
sS'mickey'
p5697
I1
sS'jsut'
p5698
I1
sS'burkittsvil'
p5699
I1
sS'hazzard'
p5700
I2
sS'juicy'
p5701
I1
sS'exerc'
p5702
I5
sS'gosford'
p5703
I2
sS'well-written'
p5704
I1
sS'expir'
p5705
I1
sS'hughjackm'
p5706
I1
sS'rugr'
p5707
I2
sS'karl'
p5708
I1
sS'underdevelop'
p5709
I2
sS'imagin'
p5710
I19
sS'wilson'
p5711
I2
sS'jour'
p5712
I1
sS'lib'
p5713
I12
sS'lil'
p5714
I4
sValfy
p5715
I1
sS'lin'
p5716
I55
sS'lik'
p5717
I554
sS'lit'
p5718
I13
sS'liv'
p5719
I49
sS'lip'
p5720
I1
sS'useless'
p5721
I13
sS'teen-style'
p5722
I1
sS'lis'
p5723
I1
sS'maladjust'
p5724
I1
sS'nightm'
p5725
I11
sS'liz'
p5726
I3
sS'buff'
p5727
I2
sS'gilm'
p5728
I3
sS'clothespin'
p5729
I1
sS'choos'
p5730
I2
sS'reach'
p5731
I5
sS'kan'
p5732
I2
sS'zahn'
p5733
I1
sS'steam'
p5734
I3
sS'react'
p5735
I2
sS'caddyshack'
p5736
I2
sS'75'
p5737
I3
sS'70'
p5738
I5
sS'suitcas'
p5739
I1
sS'kay'
p5740
I2
sS'anti-war'
p5741
I1
sS'screenwriter'
p5742
I3
sVappear
p5743
I14
sS'thinly-veiled'
p5744
I1
sS'clear'
p5745
I11
sS'destruct'
p5746
I6
sS'part-time'
p5747
I1
sS'tongu'
p5748
I2
sS'stinkoram'
p5749
I2
sS'awesom'
p5750
I11
sS'ozbourn'
p5751
I1
sS'swish'
p5752
I1
sS'phenomenon'
p5753
I3
sS'pre-adolescent'
p5754
I1
sS'tri'
p5755
I65
sS'6-year'
p5756
I1
sS'fond'
p5757
I3
sS'netherworld'
p5758
I1
sS'top-notch'
p5759
I1
sS'fail-safe'
p5760
I1
sS'sex-centered'
p5761
I1
sS'kinsey'
p5762
I2
sS'paus'
p5763
I1
sS'sterotyp'
p5764
I2
sS'northern'
p5765
I1
sS'paranoid'
p5766
I2
sS'flesh'
p5767
I4
sS'you-know-who'
p5768
I1
sS'x-men'
p5769
I4
sS'striptease'
p5770
I2
sS'frivol'
p5771
I1
sS'randy'
p5772
I7
sS'betray'
p5773
I1
sS'pretty'
p5774
I67
sS'ten-minute'
p5775
I1
sS'hogwart'
p5776
I1
sS'hip'
p5777
I4
sS'hir'
p5778
I6
sS'his'
p5779
I235
sS'hit'
p5780
I17
sS'ste'
p5781
I3
sS'goody-goody'
p5782
I1
sS'she'
p5783
I176
sS'grocery'
p5784
I1
sS'time--full'
p5785
I1
sS'twelv'
p5786
I1
sS'hid'
p5787
I9
sS'longest'
p5788
I2
sS'hig'
p5789
I1
sS'hik'
p5790
I1
sVhil
p5791
I23
sS'him'
p5792
I90
sS'stamp'
p5793
I2
sS'fluff'
p5794
I3
sS'left-wing'
p5795
I1
sS'nnnooooo'
p5796
I1
sS'unattract'
p5797
I2
sS'ummmm'
p5798
I1
sS'potray'
p5799
I1
sS'scripted'
p5800
I2
sS'witht'
p5801
I1
sS'relentless'
p5802
I1
sS'ixnay'
p5803
I1
sS'seventeen'
p5804
I2
sS'ars'
p5805
I1
sS'art'
p5806
I23
sS'surpass'
p5807
I1
sS'dump'
p5808
I6
sS'throwing'
p5809
I3
sS'ary'
p5810
I4
sS'mcgowan'
p5811
I1
sS'matix'
p5812
I1
sS'schizophrenic'
p5813
I1
sVdelud
p5814
I1
sS'hoopl'
p5815
I1
sS'dumb'
p5816
I67
sS'are'
p5817
I1
sS'duma'
p5818
I1
sS'bark'
p5819
I3
sS'ark'
p5820
I1
sS'arl'
p5821
I2
sS'whatsoev'
p5822
I19
sS'arn'
p5823
I1
sS'cheapshot'
p5824
I1
sS'infilt'
p5825
I1
sVblury
p5826
I1
sS'horrid'
p5827
I23
sS'walberg'
p5828
I2
sS'wou'
p5829
I1
sS'trench'
p5830
I2
sS'wow'
p5831
I20
sS'grandmoth'
p5832
I1
sS'particip'
p5833
I2
sS'wor'
p5834
I56
sS'wom'
p5835
I73
sS'anti-technology'
p5836
I2
sS'woo'
p5837
I4
sS'won'
p5838
I30
sS'entwin'
p5839
I1
sS'wok'
p5840
I2
sS'woe'
p5841
I2
sS'berserk'
p5842
I1
sS'piss'
p5843
I10
sS'drowned-out'
p5844
I1
sS'dalla'
p5845
I2
sS'bibl'
p5846
I8
sS'goddamn'
p5847
I1
sS'induc'
p5848
I3
sS'isol'
p5849
I1
sS'outfit'
p5850
I2
sS'half-hearted'
p5851
I1
sS'solv'
p5852
I1
sS'both'
p5853
I61
sS'c'
p5854
I10
sS'communitit'
p5855
I1
sS'anoy'
p5856
I1
sS'keaton'
p5857
I2
sS'floor-faced'
p5858
I1
sS'oversea'
p5859
I2
sVjoddy
p5860
I1
sS'dtv'
p5861
I1
sS'detest'
p5862
I2
sS'context'
p5863
I1
sS'buzz'
p5864
I2
sS'witch'
p5865
I23
sS'mari'
p5866
I1
sS'exterem'
p5867
I1
sS'curios'
p5868
I3
sS'distress'
p5869
I1
sS'jeff'
p5870
I6
sVbattery
p5871
I1
sS'sweet'
p5872
I9
sVglorfy
p5873
I1
sS'sweep'
p5874
I1
sS'storyline-'
p5875
I1
sVfacul
p5876
I1
sS'peron'
p5877
I1
sS'weasel'
p5878
I2
sS'mistak'
p5879
I16
sS'wel'
p5880
I105
sS'along'
p5881
I21
sS'duh'
p5882
I3
sS'duk'
p5883
I3
sS'dul'
p5884
I42
sS'dum'
p5885
I2
sS'wer'
p5886
I293
sS'celluloid'
p5887
I6
sS'overlook'
p5888
I3
sS'dud'
p5889
I22
sS'due'
p5890
I4
sS'whor'
p5891
I1
sS'whos'
p5892
I13
sS'whol'
p5893
I93
sS'wasnt'
p5894
I7
sS'newcom'
p5895
I1
sS'damn'
p5896
I20
sS'pg'
p5897
I2
sS'mutiny'
p5898
I1
sS'threaten'
p5899
I1
sS'nicol'
p5900
I10
sS'napl'
p5901
I1
sS'empty'
p5902
I13
sS'pm'
p5903
I1
sS'invis'
p5904
I6
sS'flight'
p5905
I2
sS'1950s'
p5906
I1
sS'wet'
p5907
I3
sS'altm'
p5908
I3
sS'deter'
p5909
I1
sS'anthony'
p5910
I4
sS'imax'
p5911
I3
sS'demand'
p5912
I6
sS'meritor'
p5913
I1
sS'loon'
p5914
I1
sS'overplay'
p5915
I1
sS'look'
p5916
I170
sS'ferel'
p5917
I1
sS'theref'
p5918
I7
sS'abol'
p5919
I1
sS'abom'
p5920
I1
sS'bop'
p5921
I4
sS'accolad'
p5922
I2
sS'jkook'
p5923
I1
sS'smart'
p5924
I9
sS'abov'
p5925
I10
sS'shift'
p5926
I1
sS'punchlin'
p5927
I1
sS'bor'
p5928
I290
sS'loop'
p5929
I1
sS'prolog'
p5930
I1
sS'spons'
p5931
I1
sS'asund'
p5932
I1
sS'giml'
p5933
I1
sS'well-acted'
p5934
I1
sS'riv'
p5935
I4
sS'trumped-up'
p5936
I1
sS'rit'
p5937
I3
sS'demon'
p5938
I10
sS'ris'
p5939
I4
sS'rip'
p5940
I27
sS'ecstasy'
p5941
I1
sS'styl'
p5942
I14
sS'ready'
p5943
I7
sS'rig'
p5944
I1
sS'rid'
p5945
I10
sS'predecess'
p5946
I2
sS'ria'
p5947
I2
sS'shar'
p5948
I7
sS'shap'
p5949
I1
sS're-does'
p5950
I1
sS'shirt'
p5951
I2
sS'shat'
p5952
I4
sS'grant'
p5953
I7
sS'belong'
p5954
I7
sS'masscr'
p5955
I1
sS'wierd'
p5956
I5
sS'shad'
p5957
I1
sS'grand'
p5958
I1
sS'9'
p5959
I12
sS'shak'
p5960
I3
sS'conflict'
p5961
I1
sS'sham'
p5962
I13
sVcruc
p5963
I1
sS'lie'
p5964
I22
sS'optim'
p5965
I7
sS'desp'
p5966
I9
sS'blair'
p5967
I22
sS'overweight'
p5968
I1
sS'lif'
p5969
I103
sS'm'
p5970
I138
sS'000'
p5971
I5
sS'knol'
p5972
I1
sS'extrem'
p5973
I48
sS'slow-going'
p5974
I1
sS'tiresom'
p5975
I4
sS'pryc'
p5976
I1
sS'particul'
p5977
I15
sS'cellphon'
p5978
I1
sS'schindler'
p5979
I2
sS'anybody'
p5980
I6
sVedgy
p5981
I1
sS'cheep'
p5982
I2
sS'cruxifict'
p5983
I1
sS'chees'
p5984
I4
sVnighty
p5985
I1
sS'colostom'
p5986
I1
sS'butthol'
p5987
I1
sS'cour'
p5988
I1
sS'arquet'
p5989
I3
sS'fall-back'
p5990
I1
sS'skat'
p5991
I1
sS'pebbl'
p5992
I1
sS'clifton'
p5993
I1
sS'rambo'
p5994
I2
sS'disel'
p5995
I2
sS'1800s'
p5996
I1
sS'tick'
p5997
I1
sS'$'
p5998
I42
sS'ma'
p5999
I2
sS'k2'
p6000
I2
sS'scenario'
p6001
I3
sS'bick'
p6002
I2
sS'humanoid'
p6003
I1
sS'throats'
p6004
I1
sS'soooooo'
p6005
I2
sS'outerspac'
p6006
I1
sS'subsequ'
p6007
I2
sS'ridley'
p6008
I3
sS'elv'
p6009
I3
sS'soliloquy'
p6010
I1
sS'march'
p6011
I1
sS'filmset'
p6012
I1
sS'glipst'
p6013
I1
sS'wisem'
p6014
I2
sS'joyless'
p6015
I1
sS'seanbryson'
p6016
I1
sS'devil-whore'
p6017
I1
sS'lovin'
p6018
I1
sS'lowbrow'
p6019
I4
sS'mariah'
p6020
I6
sS'confront'
p6021
I4
sS'incred'
p6022
I24
sS'day-care'
p6023
I1
sVresolv
p6024
I2
sS'manifest'
p6025
I1
sS'dreck'
p6026
I12
sS'ignorn'
p6027
I1
sS'sketch'
p6028
I1
sS'unintellig'
p6029
I1
sS'1st'
p6030
I3
sS'understood'
p6031
I3
sS'clown'
p6032
I5
sS'trendy'
p6033
I1
sS'anti-american'
p6034
I1
sS'5'
p6035
I35
sS'syndrom'
p6036
I1
sS'2102723'
p6037
I1
sS'chocol'
p6038
I2
sVanny
p6039
I3
sS'prov'
p6040
I26
sS'prot'
p6041
I1
sS'prop'
p6042
I9
sS'overemot'
p6043
I1
sS'prom'
p6044
I8
sS'prol'
p6045
I2
sS'slash'
p6046
I9
sS'prof'
p6047
I27
sS'slapstick'
p6048
I1
sS'prob'
p6049
I39
sS'jumpy'
p6050
I1
sS'run'
p6051
I43
sVachy
p6052
I1
sS'rul'
p6053
I10
sS'rub'
p6054
I14
sS'"conan'
p6055
I1
sS'kelsey'
p6056
I1
sS'ruf'
p6057
I1
sS'aaaahhhhh'
p6058
I1
sS'rud'
p6059
I2
sS'aerosmith'
p6060
I1
sS'step'
p6061
I7
sS'othello'
p6062
I1
sS'squeez'
p6063
I1
sS'twenty'
p6064
I3
sS'cinematograph'
p6065
I10
sS'rut'
p6066
I1
sS'hogwash'
p6067
I2
sS'faith'
p6068
I2
sS're-mak'
p6069
I2
sS'wouldnt'
p6070
I4
sS'yawn'
p6071
I3
sS'soft'
p6072
I1
sS'protagon'
p6073
I5
sS'lifeless'
p6074
I2
sS'masterpiec'
p6075
I8
sS'dialog'
p6076
I39
sS'ide'
p6077
I57
sS'shiny'
p6078
I2
sS'underton'
p6079
I1
sS'block'
p6080
I1
sS'charl'
p6081
I3
sS'kedward'
p6082
I2
sS'lifetim'
p6083
I1
sS'conquest'
p6084
I1
sS'kat'
p6085
I6
sVannount
p6086
I1
sS'blockbust'
p6087
I10
sS'momma'
p6088
I1
sS'stench'
p6089
I2
sS'institut'
p6090
I2
sS'pedophil'
p6091
I1
sS'canad'
p6092
I3
sS'brut'
p6093
I10
sS'fast'
p6094
I17
sS'yicky'
p6095
I1
sS'fash'
p6096
I5
sS'charg'
p6097
I4
sS'upheld'
p6098
I1
sS'pabl'
p6099
I2
sS'bruc'
p6100
I9
sS'overhyp'
p6101
I4
sS'tobey'
p6102
I1
sS'himself'
p6103
I25
sS'kristinand'
p6104
I1
sS'reev'
p6105
I6
sS'reveng'
p6106
I5
sS'inept'
p6107
I2
sS'cloth'
p6108
I9
sS'anti-fast'
p6109
I2
sS'crank'
p6110
I1
sS'sick'
p6111
I56
sS'kemay'
p6112
I1
sS'reek'
p6113
I2
sS'reel'
p6114
I4
sVtolky
p6115
I1
sS'4ever'
p6116
I2
sS'patriot'
p6117
I4
sS'infl'
p6118
I2
sS'fict'
p6119
I17
sS'grinch'
p6120
I2
sS'broccol'
p6121
I1
sS'retard'
p6122
I11
sS'today'
p6123
I16
sS'highlight'
p6124
I6
sS'z'
p6125
I4
sS'x-ray'
p6126
I1
sS'willem'
p6127
I1
sS'derang'
p6128
I2
sS'freak'
p6129
I11
sS'convey'
p6130
I2
sS'demonst'
p6131
I1
sS'doesn'
p6132
I66
sS'repres'
p6133
I9
sS'vot'
p6134
I11
sS'cleav'
p6135
I1
sS'psychopath'
p6136
I1
sS'cotton'
p6137
I3
sS'r-rated'
p6138
I9
sS'lemon'
p6139
I1
sS'nag'
p6140
I1
sS'insomniac'
p6141
I1
sS'titl'
p6142
I31
sS'"doppelganger-the'
p6143
I1
sS'non-whites'
p6144
I1
sS'nam'
p6145
I37
sS'nar'
p6146
I4
sS'nas'
p6147
I1
sS'-the'
p6148
I3
sS'gre'
p6149
I139
sVtrekky
p6150
I2
sS'nat'
p6151
I24
sS'grind'
p6152
I2
sS'contoversy'
p6153
I1
sS'gro'
p6154
I1
sS'mean-natured'
p6155
I1
sS'unadult'
p6156
I2
sS'mock'
p6157
I1
sS'gri'
p6158
I2
sS'draw'
p6159
I1
sS'jurass'
p6160
I2
sVpyschy
p6161
I1
sS'deplict'
p6162
I1
sS'missil'
p6163
I1
sS'william'
p6164
I8
sS'nevad'
p6165
I1
sS'drag'
p6166
I29
sS'everywh'
p6167
I6
sS'drab'
p6168
I1
sS'dram'
p6169
I38
sVess
p6170
I8
sS'notch'
p6171
I1
sS'overlong'
p6172
I2
sS'models--stand'
p6173
I1
sS'dvd'
p6174
I17
sS'humbl'
p6175
I1
sS'wearisom'
p6176
I2
sS'heath'
p6177
I1
sS'nasc'
p6178
I6
sS'depth'
p6179
I1
sS'remin'
p6180
I1
sS'vict'
p6181
I2
sS'broad'
p6182
I2
sS'ashton'
p6183
I3
sS'nash'
p6184
I3
sVvicy
p6185
I3
sS'buffalo'
p6186
I1
sS'avoid'
p6187
I45
sVkaty
p6188
I3
sS'pervert'
p6189
I8
sS'pervers'
p6190
I1
sS'edg'
p6191
I3
sS'funct'
p6192
I2
sS'subcult'
p6193
I1
sS'letgodbetru'
p6194
I1
sS'unev'
p6195
I1
sS'commerc'
p6196
I10
sS'gang'
p6197
I4
sS'go'
p6198
I125
sS'psycho'
p6199
I6
sS'ass'
p6200
I22
sS'prdictable'
p6201
I1
sVcahr
p6202
I1
sS'ugl'
p6203
I1
sS'befal'
p6204
I1
sS'occasionally-amusing'
p6205
I1
sS'shack'
p6206
I1
sVdruggy
p6207
I2
sS'mathieson'
p6208
I1
sS'dragonheart'
p6209
I1
sVfiant
p6210
I2
sS'envelop'
p6211
I1
sS'mainstream'
p6212
I1
sS'nichola'
p6213
I3
sS'un-scary'
p6214
I2
sS'deniro'
p6215
I5
sS'spoon'
p6216
I2
sS'pfeiff'
p6217
I2
sS'spook'
p6218
I1
sS'spoof'
p6219
I9
sS'spoog'
p6220
I1
sS'relev'
p6221
I1
sS'eeek'
p6222
I1
sS'disgrac'
p6223
I12
sS'stiff'
p6224
I6
sS'button'
p6225
I2
sS'michael'
p6226
I33
sS'stifl'
p6227
I1
sS'ryan'
p6228
I11
sS'godaw'
p6229
I5
sS'co-stars'
p6230
I1
sS'verdict'
p6231
I1
sS'?'
p6232
I713
sS'dealt'
p6233
I1
sS'mirac'
p6234
I3
sS'casablanc'
p6235
I2
sS'pleas'
p6236
I47
sS'stairway'
p6237
I1
sS'meathead'
p6238
I5
sS'booty'
p6239
I1
sS'bleechhh'
p6240
I1
sS'nowwwwwww'
p6241
I1
sS'battl'
p6242
I13
sS'detrit'
p6243
I1
sS'soul'
p6244
I10
sS'jump'
p6245
I19
sS'helicopt'
p6246
I3
sS'taillight'
p6247
I1
sS'plead'
p6248
I1
sS'lip-synching'
p6249
I1
sS'acid'
p6250
I3
sS'click'
p6251
I3
sS'clich'
p6252
I22
sS'stankon'
p6253
I1
sS'goly'
p6254
I1
sS'lesbian-killer'
p6255
I1
sS'outsmart'
p6256
I2
sS'colonel'
p6257
I1
sS'kindergart'
p6258
I1
sS'jekyl'
p6259
I1
sS'washed-up'
p6260
I1
sS'ex-girlfriend'
p6261
I1
sS'acronym'
p6262
I1
sS'19th'
p6263
I1
sS'cit'
p6264
I1
sVsuperbaby
p6265
I1
sS'phooey'
p6266
I1
sS';'
p6267
I51
sS'krik'
p6268
I1
sS'self-exploitation'
p6269
I1
sS'newton-john'
p6270
I2
sS'kangaroo'
p6271
I2
sS'eminem'
p6272
I2
sS'afternoon'
p6273
I3
sS'hasbeen'
p6274
I1
sS'sexy'
p6275
I6
sS'becom'
p6276
I17
sS'stark'
p6277
I1
sS'convers'
p6278
I2
sVgeny
p6279
I1
sS'reenfirc'
p6280
I1
sVchant
p6281
I9
sS'genu'
p6282
I1
sS'genr'
p6283
I16
sS'geni'
p6284
I2
sS'simpleton'
p6285
I1
sS'gend'
p6286
I1
sS'hemorrhoid'
p6287
I1
sS'wif'
p6288
I23
sS'wid'
p6289
I3
sS'hardl'
p6290
I1
sS'heart'
p6291
I13
sS'egypt'
p6292
I2
sS'win'
p6293
I15
sS'approxim'
p6294
I1
sS'wil'
p6295
I165
sS'exorc'
p6296
I6
sS'wiv'
p6297
I4
sS'wit'
p6298
I19
sS'wis'
p6299
I3
sS'wir'
p6300
I2
sS'wip'
p6301
I3
sS'judeo-christian'
p6302
I1
sS'apply'
p6303
I1
sS'gimmick'
p6304
I1
sS'greg'
p6305
I1
sS'cloud'
p6306
I1
sS'fed'
p6307
I4
sS'fee'
p6308
I2
sS'crap'
p6309
I143
sS'frol'
p6310
I1
sS'snoop'
p6311
I6
sS'&'
p6312
I25
sS'fel'
p6313
I40
sS'fem'
p6314
I14
sS'crown'
p6315
I1
sS'craz'
p6316
I2
sS'germ'
p6317
I3
sS'fev'
p6318
I1
sS'few'
p6319
I56
sS'fet'
p6320
I2
sS'camera'
p6321
I3
sS'scariest'
p6322
I3
sS'lame-o-rama'
p6323
I1
sVgery
p6324
I1
sS'deport'
p6325
I1
sS'dog-gone-it'
p6326
I1
sS'remaind'
p6327
I1
sS'sort'
p6328
I20
sS'krueg'
p6329
I2
sS'dash'
p6330
I2
sS'prostitute-worn'
p6331
I1
sS'whant'
p6332
I1
sS'impress'
p6333
I20
sS'smashmou'
p6334
I1
sS'columbo'
p6335
I1
sS'rabbit'
p6336
I1
sS'ridcio'
p6337
I1
sS'nickolson'
p6338
I1
sS'annoy'
p6339
I58
sS'villechev'
p6340
I1
sS'travolt'
p6341
I13
sS'salad'
p6342
I2
sS'meet'
p6343
I15
sS'vaunt'
p6344
I1
sS'control'
p6345
I15
sS'tap'
p6346
I16
sS'thirsty'
p6347
I1
sS'biddy'
p6348
I1
sS'halloween'
p6349
I23
sS'shrewlike'
p6350
I1
sS'rapt'
p6351
I1
sS'tad'
p6352
I1
sS'villain'
p6353
I8
sS'hilton'
p6354
I1
sS'tal'
p6355
I64
sS'tam'
p6356
I2
sS'three-layer'
p6357
I1
sS'waaaaa'
p6358
I1
sS'tak'
p6359
I121
sS'sir'
p6360
I3
sS'nary'
p6361
I1
sS'sit'
p6362
I50
sS'siz'
p6363
I3
sS'six'
p6364
I6
sS'struggles'
p6365
I1
sS'georg'
p6366
I16
sS'sic'
p6367
I1
sS'stockard'
p6368
I1
sS'sid'
p6369
I17
sS'ugghhhh'
p6370
I1
sS'instead'
p6371
I60
sS'huston'
p6372
I1
sS'sin'
p6373
I6
sS'insurrect'
p6374
I1
sS'sil'
p6375
I35
sS'dung'
p6376
I2
sS'role-playing'
p6377
I1
sS'attend'
p6378
I1
sS'inconsequ'
p6379
I1
sS'outdid'
p6380
I1
sS'tact'
p6381
I1
sS'derict'
p6382
I1
sS'fart'
p6383
I3
sS'discomfort'
p6384
I1
sS'wrist'
p6385
I4
sS'clooney'
p6386
I8
sS'fratern'
p6387
I2
sS'masturb'
p6388
I5
sS'pend'
p6389
I1
sS'caveziel'
p6390
I1
sS'interes'
p6391
I1
sS'liason'
p6392
I2
sS'fug'
p6393
I1
sS'wwii'
p6394
I1
sS'scrubs'
p6395
I1
sS'ravolt'
p6396
I2
sS'americ'
p6397
I29
sS'andyru'
p6398
I1
sS'artsy-fartsy'
p6399
I1
sS'damsel'
p6400
I1
sS'elit'
p6401
I4
sS'runteld'
p6402
I1
sS'ocul'
p6403
I1
sS'glen'
p6404
I2
sS'affleck'
p6405
I9
sS'voiceless'
p6406
I1
sS'guerrilla'
p6407
I1
sS'ent'
p6408
I1
sS'brook'
p6409
I1
sS'byn'
p6410
I1
sS'protagno'
p6411
I1
sS'kinnear'
p6412
I1
sS'flail'
p6413
I1
sS'bin'
p6414
I5
sS'oz'
p6415
I1
sS'crash'
p6416
I7
sS'handl'
p6417
I2
sS'fub'
p6418
I1
sS'muddl'
p6419
I1
sS'auth'
p6420
I8
sVprecess
p6421
I1
sS'zellweg'
p6422
I5
sS'nihil'
p6423
I7
sS'front'
p6424
I6
sS'hannib'
p6425
I8
sS'crass'
p6426
I3
sS'annoint'
p6427
I1
sS'masterp'
p6428
I1
sS'trag'
p6429
I1
sS'ambl'
p6430
I1
sS'profound'
p6431
I4
sS'edit'
p6432
I10
sS'nfl'
p6433
I2
sS'oedip'
p6434
I1
sS'astrolog'
p6435
I2
sS'meat-head'
p6436
I1
sS'tv-pg'
p6437
I1
sS'bekong'
p6438
I1
sS'upward'
p6439
I1
sS'snf'
p6440
I1
sS'arkansa'
p6441
I1
sS'vacation"'
p6442
I1
sS'crapol'
p6443
I1
sS'disgu'
p6444
I7
sS'chunk'
p6445
I1
sS'sandl'
p6446
I32
sS'attitdu'
p6447
I1
sS'spielberg'
p6448
I12
sS'skank'
p6449
I1
sS'89'
p6450
I1
sS'sandr'
p6451
I3
sS'laundry'
p6452
I1
sS'flop-sweat'
p6453
I1
sS'out'
p6454
I384
sS'butch'
p6455
I6
sS'tabloid'
p6456
I2
sS'1999-film'
p6457
I1
sS'confess'
p6458
I1
sS'fathom'
p6459
I1
sS'cop-out'
p6460
I1
sS'wicc'
p6461
I1
sS'tavolt'
p6462
I1
sS'schmucks'
p6463
I1
sS'tommorow'
p6464
I1
sS'wich'
p6465
I1
sS'wick'
p6466
I3
sS'garfield'
p6467
I12
sVobsess
p6468
I2
sS'ecc'
p6469
I2
sS'trashy'
p6470
I4
sS'1987'
p6471
I1
sS'scoff'
p6472
I1
sS'counsl'
p6473
I1
sS'70s'
p6474
I4
sS'ahhhhhhhhhhhhhhhhh'
p6475
I1
sS'prozac'
p6476
I1
sS'york'
p6477
I4
sS'x'
p6478
I5
sS'epitimy'
p6479
I1
sS'achil'
p6480
I1
sS'coorp'
p6481
I1
sS'shrew'
p6482
I1
sS'etern'
p6483
I4
sS'age-old'
p6484
I1
sS'non-scary'
p6485
I2
sS'platoon'
p6486
I1
sS'g'
p6487
I10
sS'latest'
p6488
I5
sS'ask'
p6489
I23
sS'disserv'
p6490
I1
sS'keep'
p6491
I38
sS'us-america'
p6492
I1
sS'keel'
p6493
I1
sS'shrek'
p6494
I5
sS'mankind'
p6495
I5
sS'mag'
p6496
I12
sS'airborn'
p6497
I1
sS'scattershot'
p6498
I1
sS'cramp'
p6499
I1
sS'congr'
p6500
I1
sS'bitch'
p6501
I5
sS'remak'
p6502
I30
sS'schwimmer'
p6503
I1
sS'suck'
p6504
I258
sS'daugh'
p6505
I1
sS'awok'
p6506
I1
sS'long'
p6507
I118
sS'droop'
p6508
I1
sS'unknown'
p6509
I3
sS'capac'
p6510
I1
sS'mal'
p6511
I13
sS'their'
p6512
I142
sS'attack'
p6513
I11
sS'wanna-bee'
p6514
I1
sS'britany'
p6515
I1
sS'atav'
p6516
I1
sS'patterson'
p6517
I1
sS'drool'
p6518
I1
sS'harmon'
p6519
I1
sS'boil'
p6520
I2
sS'misunderstood'
p6521
I1
sS'2-3'
p6522
I1
sS'academy'
p6523
I9
sS'shallow'
p6524
I15
sS'close-up'
p6525
I1
sS'cyb'
p6526
I1
sS'greenlight'
p6527
I1
sS'casino'
p6528
I2
sS'shelv'
p6529
I1
sVjuly
p6530
I2
sS'shelt'
p6531
I1
sS'herself'
p6532
I8
sS'cyn'
p6533
I6
sS'neck'
p6534
I1
sS'stupend'
p6535
I1
sS'ben'
p6536
I23
sS'bel'
p6537
I2
sS'regurgit'
p6538
I2
sS'thrashing'
p6539
I1
sS'bef'
p6540
I62
sS'beg'
p6541
I8
sS'bed'
p6542
I6
sS'tommy'
p6543
I2
sS'barb'
p6544
I2
sS'ber'
p6545
I2
sS'f13'
p6546
I1
sS'bev'
p6547
I1
sS'bew'
p6548
I1
sS'bet'
p6549
I153
sS'cliv'
p6550
I2
sS'robocop'
p6551
I1
sS'asn'
p6552
I1
sS'bordem'
p6553
I1
sS'clip'
p6554
I1
sS'journey'
p6555
I1
sS'explicit'
p6556
I3
sS'barf'
p6557
I2
sVcoher
p6558
I3
sVbiggy
p6559
I1
sS'clin'
p6560
I3
sS'500'
p6561
I2
sS'movie-with'
p6562
I1
sS'kelley'
p6563
I1
sS'matin'
p6564
I2
sS'screw'
p6565
I3
sS'bastard'
p6566
I6
sS'afraid'
p6567
I2
sS'rout'
p6568
I2
sS'rous'
p6569
I1
sS'arm'
p6570
I3
sS'bloooooood'
p6571
I1
sS'which'
p6572
I119
sS'aresn'
p6573
I1
sS'truck'
p6574
I2
sS'funnypart'
p6575
I1
sS'='
p6576
I4
sS'screwups'
p6577
I1
sS'singl'
p6578
I15
sVexcess
p6579
I4
sS'dissappoint'
p6580
I1
sVduby
p6581
I2
sS'moments"'
p6582
I1
sS'hyperc'
p6583
I1
sVjudicy
p6584
I1
sS'whi'
p6585
I1
sS'discov'
p6586
I5
sS'contens'
p6587
I1
sS'eag'
p6588
I2
sS'nuts-o'
p6589
I1
sS'awf'
p6590
I1
sS'why'
p6591
I178
sS'stereo'
p6592
I2
sS'urg'
p6593
I3
sS'urb'
p6594
I7
sS'saddest'
p6595
I2
sS'upset'
p6596
I2
sS'dent'
p6597
I3
sVcrocku
p6598
I1
sS'se'
p6599
I1
sS'determin'
p6600
I2
sS'gest'
p6601
I1
sS'skunk'
p6602
I1
sS'burnet'
p6603
I1
sS'gain'
p6604
I3
sS'affair'
p6605
I3
sS'malkovich'
p6606
I3
sS'word-'
p6607
I1
sS'bum'
p6608
I3
sS'one-'
p6609
I1
sS'shlock-'
p6610
I1
sS'apopear'
p6611
I1
sS'sarum'
p6612
I2
sS'fear'
p6613
I6
sS'darkest'
p6614
I1
sS'feat'
p6615
I21
sS'mckellan'
p6616
I2
sS'leg'
p6617
I7
sS'wuhl'
p6618
I1
sS'envy'
p6619
I1
sS'recyc'
p6620
I2
sS'sheriff'
p6621
I1
sS'hadn'
p6622
I2
sS'('
p6623
I355
sS'forev'
p6624
I8
sS'smok'
p6625
I7
sS'conick'
p6626
I1
sS'stev'
p6627
I14
sS'fuel'
p6628
I1
sS'f---'
p6629
I3
sS'piano'
p6630
I2
sS'discontinu'
p6631
I1
sS'spun'
p6632
I1
sS'sued'
p6633
I1
sVinconveny
p6634
I1
sS'\xad'
p6635
I3
sS'anti-climactic'
p6636
I1
sS'godspel'
p6637
I1
sS'120'
p6638
I1
sS'joint'
p6639
I1
sS'boycot'
p6640
I2
sS'tbn'
p6641
I1
sS'dodgy'
p6642
I1
sS'tearjerk'
p6643
I1
sS'endless'
p6644
I3
sS'gray'
p6645
I1
sS'uncontest'
p6646
I1
sS'glory'
p6647
I3
sS'tobacco'
p6648
I1
sS'shy'
p6649
I4
sS'naus'
p6650
I8
sS'grat'
p6651
I3
sS'grav'
p6652
I8
sS'ripley'
p6653
I3
sS'gush'
p6654
I2
sS'contain'
p6655
I9
sS'grab'
p6656
I7
sS'grac'
p6657
I10
sS'grad'
p6658
I12
sS'widow'
p6659
I3
sS'expel'
p6660
I1
sS'knowledg'
p6661
I3
sS'artsy'
p6662
I4
sS'bollock'
p6663
I1
sS'schlockfests'
p6664
I1
sS'distract'
p6665
I4
sS'violet'
p6666
I1
sS'story-writer'
p6667
I1
sS'superm'
p6668
I5
sS'impos'
p6669
I1
sS'panth'
p6670
I2
sS'superh'
p6671
I1
sS'superf'
p6672
I2
sS'cruel'
p6673
I9
sVjunky
p6674
I2
sS'tend'
p6675
I8
sS'genius'
p6676
I2
sS'belov'
p6677
I1
sS'afauwl'
p6678
I1
sVpanty
p6679
I3
sS'lug'
p6680
I2
sS'tens'
p6681
I1
sS'barbershop'
p6682
I1
sS'luk'
p6683
I1
sS'stupid-make-gross-jokes-in-a-futile-attempt-to-be-funny'
p6684
I1
sS'sold'
p6685
I8
sS'lun'
p6686
I2
sS'killabuds4every1'
p6687
I1
sS'ken'
p6688
I1
sS'kel'
p6689
I4
sS'amel'
p6690
I1
sS'joy'
p6691
I2
sS'kee'
p6692
I1
sS'ked'
p6693
I1
sS'simple-minded'
p6694
I1
sS'exag'
p6695
I2
sS'foreshadow'
p6696
I1
sS'job'
p6697
I30
sS'entir'
p6698
I58
sS'joe'
p6699
I2
sS'spoil'
p6700
I8
sS'jog'
p6701
I1
sS'puh-lease'
p6702
I1
sS'harlin'
p6703
I1
sS'stucco'
p6704
I1
sS'jon'
p6705
I12
sS'addit'
p6706
I13
sS'mcconahay'
p6707
I2
sVlebl
p6708
I1
sVadmit
p6709
I15
sS'admir'
p6710
I2
sS'atleast'
p6711
I2
sS'nitro'
p6712
I1
sS'asthm'
p6713
I1
sS'rodney'
p6714
I1
sS'unappeal'
p6715
I1
sS'jersey'
p6716
I1
sS'bride-to-b'
p6717
I1
sS'jim'
p6718
I28
sS'walk'
p6719
I58
sS'craptast'
p6720
I1
sS'math'
p6721
I3
sS'respect'
p6722
I26
sS'quit'
p6723
I38
sS'treac'
p6724
I2
sS'domanatrix'
p6725
I1
sS'reptil'
p6726
I2
sS'maid'
p6727
I1
sS'8-year'
p6728
I1
sS'hindu'
p6729
I1
sS'transp'
p6730
I2
sS'bbc'
p6731
I1
sS'compos'
p6732
I1
sS'cent'
p6733
I9
sS'compon'
p6734
I1
sS'besid'
p6735
I13
sS'novelet'
p6736
I1
sS'"rosemary'
p6737
I1
sS'poet'
p6738
I2
sS'quil'
p6739
I2
sS'asinin'
p6740
I2
sVobvy
p6741
I32
sS'sart'
p6742
I1
sS'oth'
p6743
I129
sS'noooo'
p6744
I1
sS'dutchvu'
p6745
I1
sS'crappy'
p6746
I20
sS'hmm'
p6747
I2
sS'minim'
p6748
I2
sS'subtitl'
p6749
I3
sS'ins'
p6750
I10
sS'saltzm'
p6751
I1
sS'shameless'
p6752
I4
sS'renegad'
p6753
I1
sS'twist'
p6754
I15
sS'novel'
p6755
I14
sS'wilt'
p6756
I1
sS'televison'
p6757
I1
sS'whoopdy'
p6758
I1
sS'unsuit'
p6759
I1
sVingredy
p6760
I1
sS'presens'
p6761
I1
sS'wild'
p6762
I7
sS're-aired'
p6763
I1
sS'observ'
p6764
I1
sS'bolero'
p6765
I1
sS'ponderars'
p6766
I1
sS'tar'
p6767
I4
sS'apprehend'
p6768
I1
sS'alon'
p6769
I19
sVrefr
p6770
I1
sVrevid
p6771
I1
sS'revig'
p6772
I1
sS'ind'
p6773
I6
sS'mcdowell'
p6774
I1
sS'snuck'
p6775
I4
sS'thug'
p6776
I1
sS'crawel'
p6777
I1
sS'gothik'
p6778
I1
sS'pir'
p6779
I2
sS'reff'
p6780
I1
sS'-year-old'
p6781
I1
sS'tas'
p6782
I1
sS'welcom'
p6783
I3
sS'misfortun'
p6784
I4
sS'cross'
p6785
I7
sS'partn'
p6786
I3
sS'strange'
p6787
I10
sS'fido'
p6788
I1
sS'largest'
p6789
I1
sS'party'
p6790
I10
sS'difficult'
p6791
I10
sS'http'
p6792
I2
sS'promo'
p6793
I1
sVfol
p6794
I1
sS'effect'
p6795
I83
sS'romeo'
p6796
I4
sS'beast'
p6797
I2
sS'vault'
p6798
I1
sS'schartzeneger'
p6799
I1
sS'juilet'
p6800
I1
sS'soph'
p6801
I1
sS'frikin'
p6802
I1
sS'ashley'
p6803
I2
sS'surfboard'
p6804
I1
sS'lunch'
p6805
I1
sS'i'
p6806
I2958
sS'arsn'
p6807
I1
sS'usual'
p6808
I1
sS'grenad'
p6809
I1
sS'loudmouth'
p6810
I1
sS'cliffhang'
p6811
I1
sS'suff'
p6812
I13
sS'threquel'
p6813
I1
sS'camel'
p6814
I1
sS'undeserv'
p6815
I2
sS'half'
p6816
I44
sS'passeng'
p6817
I1
sS'obtain'
p6818
I1
sS'screetching'
p6819
I1
sS'patric'
p6820
I2
sS'weatherm'
p6821
I1
sS'reflux'
p6822
I1
sS'camer'
p6823
I24
sS'tcb'
p6824
I1
sS'becock'
p6825
I1
sS'knee-deep'
p6826
I1
sS'now'
p6827
I96
sS'lord--why'
p6828
I1
sS'drunk'
p6829
I8
sS'sky'
p6830
I1
sS'paen'
p6831
I1
sS'baseketbal'
p6832
I1
sS'mathau'
p6833
I1
sS'dudet'
p6834
I1
sS'oscar-worthy'
p6835
I1
sVnata
p6836
I3
sS'ought'
p6837
I4
sS'kick'
p6838
I18
sS'boom'
p6839
I1
sS'angst-ridden'
p6840
I4
sS'branch'
p6841
I1
sS'myth'
p6842
I1
sS'wagon'
p6843
I1
sS'irrevers'
p6844
I1
sS'buoy'
p6845
I1
sVfrankensty
p6846
I1
sS'utah'
p6847
I1
sS'1999'
p6848
I1
sS'theolog'
p6849
I1
sVpresy
p6850
I1
sS'know'
p6851
I153
sS'unseen'
p6852
I2
sS'goodguy'
p6853
I1
sS'press'
p6854
I2
sS'hollow'
p6855
I5
sS'loss'
p6856
I1
sS'whpo'
p6857
I1
sS'lost'
p6858
I38
sS'storybook'
p6859
I1
sS'saget'
p6860
I1
sS'imbecil'
p6861
I3
sS'mother-in-law'
p6862
I1
sS'candy'
p6863
I6
sS'roth'
p6864
I1
sS'sissy'
p6865
I2
sS're-mad'
p6866
I2
sS'martin'
p6867
I17
sS'leot'
p6868
I1
sS'candl'
p6869
I1
sS'provok'
p6870
I3
sS'shed'
p6871
I2
sS'revers'
p6872
I2
sS'shabby'
p6873
I1
sS'scripturally'
p6874
I1
sS'donnot'
p6875
I1
sS'shel'
p6876
I3
sS'junk'
p6877
I30
sS'congressm'
p6878
I3
sS'115'
p6879
I1
sS'jlo'
p6880
I1
sS'freshm'
p6881
I1
sS'oppos'
p6882
I2
sS'jeremy'
p6883
I4
sS'lead'
p6884
I26
sS'leak'
p6885
I2
sS'lean'
p6886
I1
sS'vaudevil'
p6887
I1
sS'bullsh'
p6888
I1
sS'e-mail'
p6889
I1
sS'leav'
p6890
I38
sS'settl'
p6891
I4
sS'wendy'
p6892
I1
sS'troup'
p6893
I1
sS'rip-off'
p6894
I9
sS'pasty'
p6895
I1
sS'euro-trash'
p6896
I1
sS'investig'
p6897
I2
sS'mitz'
p6898
I1
sS'4kids'
p6899
I1
sS'zon'
p6900
I1
sS'slur'
p6901
I2
sS'whippdey'
p6902
I1
sS'slut'
p6903
I3
sS'beleav'
p6904
I1
sS'wesley'
p6905
I1
sS'bran'
p6906
I1
sS'stay'
p6907
I33
sS'slug'
p6908
I1
sVsways
p6909
I1
sS'ashl'
p6910
I1
sS'unwatch'
p6911
I8
sS'screeching'
p6912
I3
sS'margaret'
p6913
I1
sS'freedom'
p6914
I5
sS'mommy'
p6915
I1
sS'duo'
p6916
I2
sS'foil'
p6917
I1
sS'sidekick'
p6918
I1
sS'injusto'
p6919
I2
sS'swear'
p6920
I8
sS'unbreak'
p6921
I1
sVperky
p6922
I1
sS'700'
p6923
I1
sS'warranty'
p6924
I1
sS'own'
p6925
I40
sS'swe'
p6926
I2
sS'washington'
p6927
I1
sS'boggl'
p6928
I2
sS'j-lo'
p6929
I3
sS'brush'
p6930
I2
sS'buick'
p6931
I1
sS'pollak'
p6932
I1
sS'couldnt'
p6933
I3
sS'pointless'
p6934
I40
sS'doubtless'
p6935
I2
sVscivvy
p6936
I1
sS'masoch'
p6937
I3
sS'van'
p6938
I8
sS'val'
p6939
I1
sS'whom'
p6940
I5
sS'vac'
p6941
I5
sS'*'
p6942
I144
sS'vad'
p6943
I4
sS'wimp'
p6944
I1
sS'appl'
p6945
I3
sS'christians'
p6946
I4
sS'ed'
p6947
I3
sS'vas'
p6948
I1
sS'at-times'
p6949
I1
sS'appa'
p6950
I3
sS'appoint'
p6951
I2
sS'baaaaad'
p6952
I1
sS'elicit'
p6953
I1
sS'yeah'
p6954
I18
sS'hi'
p6955
I1
sS'hallmark'
p6956
I1
sS'nut'
p6957
I5
sS'feardotcom'
p6958
I1
sS'overflow'
p6959
I2
sS'ha'
p6960
I49
sS'dur'
p6961
I33
sS'he'
p6962
I389
sS'temt'
p6963
I1
sS'puddl'
p6964
I1
sVarny
p6965
I1
sS'madm'
p6966
I1
sS'nightgown'
p6967
I1
sS'record'
p6968
I11
sS'below'
p6969
I9
sS'battelfield'
p6970
I1
sS'limit'
p6971
I6
sS'showgirl'
p6972
I2
sS'dmx'
p6973
I3
sS'firm'
p6974
I3
sS'cmon'
p6975
I1
sS'jenny'
p6976
I1
sS'evalu'
p6977
I1
sS'duchovney'
p6978
I1
sS'maury'
p6979
I2
sS'penny'
p6980
I1
sS'beatl'
p6981
I7
sS'erin'
p6982
I1
sS'anti-semite'
p6983
I1
sS'loud'
p6984
I9
sS'contest'
p6985
I5
sS'dispos'
p6986
I3
sS'un-funny'
p6987
I1
sS'boot'
p6988
I8
sS'enigm'
p6989
I2
sS'teror'
p6990
I1
sS'book'
p6991
I104
sS'crummy'
p6992
I1
sS'othew'
p6993
I1
sS'infect'
p6994
I2
sS'boob'
p6995
I8
sS'talkin'
p6996
I1
sS'stat'
p6997
I31
sS'characterwho'
p6998
I1
sS'star'
p6999
I160
sS'flaccid'
p7000
I1
sS'pleassureful'
p7001
I1
sS'putrid'
p7002
I3
sS'profanity-laced'
p7003
I2
sVjuny
p7004
I4
sS'stag'
p7005
I2
sS'pseudo-intellectual'
p7006
I2
sS'stab'
p7007
I4
sVpreform
p7008
I1
sS'nintendo'
p7009
I1
sS'stal'
p7010
I4
sS'wannab'
p7011
I4
sS'stak'
p7012
I1
sS'squeam'
p7013
I2
sS'cliff'
p7014
I1
sS'pringl'
p7015
I1
sS'massacr'
p7016
I6
sS'insipid'
p7017
I5
sS'35mm'
p7018
I1
sS'emerg'
p7019
I1
sS'15-20'
p7020
I1
sS'richardson'
p7021
I1
sS'"the'
p7022
I5
sS'sci-'
p7023
I1
sS'simpson'
p7024
I5
sS'1864'
p7025
I1
s.