(lp0
S'movies-1-10003.txt'
p1
aS'movies-1-10005.txt'
p2
aS'movies-1-10034.txt'
p3
aS'movies-1-10036.txt'
p4
aS'movies-1-10044.txt'
p5
aS'movies-1-10045.txt'
p6
aS'movies-1-10070.txt'
p7
aS'movies-1-10071.txt'
p8
aS'movies-1-10073.txt'
p9
aS'movies-1-10074.txt'
p10
aS'movies-1-10085.txt'
p11
aS'movies-1-10086.txt'
p12
aS'movies-1-10087.txt'
p13
aS'movies-1-10099.txt'
p14
aS'movies-1-10113.txt'
p15
aS'movies-1-10115.txt'
p16
aS'movies-1-10119.txt'
p17
aS'movies-1-10121.txt'
p18
aS'movies-1-10123.txt'
p19
aS'movies-1-10124.txt'
p20
aS'movies-1-10129.txt'
p21
aS'movies-1-10154.txt'
p22
aS'movies-1-10167.txt'
p23
aS'movies-1-10172.txt'
p24
aS'movies-1-1019.txt'
p25
aS'movies-1-102.txt'
p26
aS'movies-1-10200.txt'
p27
aS'movies-1-10203.txt'
p28
aS'movies-1-10205.txt'
p29
aS'movies-1-10209.txt'
p30
aS'movies-1-10210.txt'
p31
aS'movies-1-10213.txt'
p32
aS'movies-1-10214.txt'
p33
aS'movies-1-10235.txt'
p34
aS'movies-1-10258.txt'
p35
aS'movies-1-10259.txt'
p36
aS'movies-1-10280.txt'
p37
aS'movies-1-10283.txt'
p38
aS'movies-1-10297.txt'
p39
aS'movies-1-10301.txt'
p40
aS'movies-1-10305.txt'
p41
aS'movies-1-10307.txt'
p42
aS'movies-1-10324.txt'
p43
aS'movies-1-10336.txt'
p44
aS'movies-1-10339.txt'
p45
aS'movies-1-10346.txt'
p46
aS'movies-1-10356.txt'
p47
aS'movies-1-10360.txt'
p48
aS'movies-1-10382.txt'
p49
aS'movies-1-10385.txt'
p50
aS'movies-1-10386.txt'
p51
aS'movies-1-10403.txt'
p52
aS'movies-1-10420.txt'
p53
aS'movies-1-10429.txt'
p54
aS'movies-1-10447.txt'
p55
aS'movies-1-10466.txt'
p56
aS'movies-1-10468.txt'
p57
aS'movies-1-10470.txt'
p58
aS'movies-1-10474.txt'
p59
aS'movies-1-10483.txt'
p60
aS'movies-1-10484.txt'
p61
aS'movies-1-10491.txt'
p62
aS'movies-1-1050.txt'
p63
aS'movies-1-10510.txt'
p64
aS'movies-1-10518.txt'
p65
aS'movies-1-10527.txt'
p66
aS'movies-1-10543.txt'
p67
aS'movies-1-10545.txt'
p68
aS'movies-1-10549.txt'
p69
aS'movies-1-10553.txt'
p70
aS'movies-1-10557.txt'
p71
aS'movies-1-10571.txt'
p72
aS'movies-1-10580.txt'
p73
aS'movies-1-10581.txt'
p74
aS'movies-1-10582.txt'
p75
aS'movies-1-10584.txt'
p76
aS'movies-1-10606.txt'
p77
aS'movies-1-10607.txt'
p78
aS'movies-1-10609.txt'
p79
aS'movies-1-10614.txt'
p80
aS'movies-1-10621.txt'
p81
aS'movies-1-10623.txt'
p82
aS'movies-1-10647.txt'
p83
aS'movies-1-1067.txt'
p84
aS'movies-1-10677.txt'
p85
aS'movies-1-10680.txt'
p86
aS'movies-1-10686.txt'
p87
aS'movies-1-10687.txt'
p88
aS'movies-1-10688.txt'
p89
aS'movies-1-1069.txt'
p90
aS'movies-1-10693.txt'
p91
aS'movies-1-10703.txt'
p92
aS'movies-1-10709.txt'
p93
aS'movies-1-10711.txt'
p94
aS'movies-1-10714.txt'
p95
aS'movies-1-10715.txt'
p96
aS'movies-1-10722.txt'
p97
aS'movies-1-10729.txt'
p98
aS'movies-1-10733.txt'
p99
aS'movies-1-10745.txt'
p100
aS'movies-1-10751.txt'
p101
aS'movies-1-1076.txt'
p102
aS'movies-1-10760.txt'
p103
aS'movies-1-10766.txt'
p104
aS'movies-1-1077.txt'
p105
aS'movies-1-10772.txt'
p106
aS'movies-1-1078.txt'
p107
aS'movies-1-10789.txt'
p108
aS'movies-1-10791.txt'
p109
aS'movies-1-10792.txt'
p110
aS'movies-1-10798.txt'
p111
aS'movies-1-10799.txt'
p112
aS'movies-1-10801.txt'
p113
aS'movies-1-10803.txt'
p114
aS'movies-1-10812.txt'
p115
aS'movies-1-10821.txt'
p116
aS'movies-1-10824.txt'
p117
aS'movies-1-10829.txt'
p118
aS'movies-1-10834.txt'
p119
aS'movies-1-10841.txt'
p120
aS'movies-1-10847.txt'
p121
aS'movies-1-10848.txt'
p122
aS'movies-1-10853.txt'
p123
aS'movies-1-10856.txt'
p124
aS'movies-1-10868.txt'
p125
aS'movies-1-10869.txt'
p126
aS'movies-1-1087.txt'
p127
aS'movies-1-10876.txt'
p128
aS'movies-1-10880.txt'
p129
aS'movies-1-10883.txt'
p130
aS'movies-1-10886.txt'
p131
aS'movies-1-10887.txt'
p132
aS'movies-1-10900.txt'
p133
aS'movies-1-10901.txt'
p134
aS'movies-1-10904.txt'
p135
aS'movies-1-10909.txt'
p136
aS'movies-1-10914.txt'
p137
aS'movies-1-10919.txt'
p138
aS'movies-1-1092.txt'
p139
aS'movies-1-10932.txt'
p140
aS'movies-1-10943.txt'
p141
aS'movies-1-10952.txt'
p142
aS'movies-1-10971.txt'
p143
aS'movies-1-10977.txt'
p144
aS'movies-1-10981.txt'
p145
aS'movies-1-10982.txt'
p146
aS'movies-1-10987.txt'
p147
aS'movies-1-11021.txt'
p148
aS'movies-1-11034.txt'
p149
aS'movies-1-11046.txt'
p150
aS'movies-1-11055.txt'
p151
aS'movies-1-11068.txt'
p152
aS'movies-1-11069.txt'
p153
aS'movies-1-1107.txt'
p154
aS'movies-1-11070.txt'
p155
aS'movies-1-11076.txt'
p156
aS'movies-1-11077.txt'
p157
aS'movies-1-11079.txt'
p158
aS'movies-1-11084.txt'
p159
aS'movies-1-11085.txt'
p160
aS'movies-1-11092.txt'
p161
aS'movies-1-11095.txt'
p162
aS'movies-1-11099.txt'
p163
aS'movies-1-11140.txt'
p164
aS'movies-1-11149.txt'
p165
aS'movies-1-11150.txt'
p166
aS'movies-1-11154.txt'
p167
aS'movies-1-11156.txt'
p168
aS'movies-1-11162.txt'
p169
aS'movies-1-11164.txt'
p170
aS'movies-1-11165.txt'
p171
aS'movies-1-11169.txt'
p172
aS'movies-1-11171.txt'
p173
aS'movies-1-11184.txt'
p174
aS'movies-1-11185.txt'
p175
aS'movies-1-11216.txt'
p176
aS'movies-1-11220.txt'
p177
aS'movies-1-11223.txt'
p178
aS'movies-1-11230.txt'
p179
aS'movies-1-11231.txt'
p180
aS'movies-1-11233.txt'
p181
aS'movies-1-11247.txt'
p182
aS'movies-1-11251.txt'
p183
aS'movies-1-11270.txt'
p184
aS'movies-1-11271.txt'
p185
aS'movies-1-11272.txt'
p186
aS'movies-1-11274.txt'
p187
aS'movies-1-11275.txt'
p188
aS'movies-1-11280.txt'
p189
aS'movies-1-11284.txt'
p190
aS'movies-1-11296.txt'
p191
aS'movies-1-11305.txt'
p192
aS'movies-1-11311.txt'
p193
aS'movies-1-11318.txt'
p194
aS'movies-1-11335.txt'
p195
aS'movies-1-11341.txt'
p196
aS'movies-1-11342.txt'
p197
aS'movies-1-11347.txt'
p198
aS'movies-1-11349.txt'
p199
aS'movies-1-11357.txt'
p200
aS'movies-1-11360.txt'
p201
aS'movies-1-11365.txt'
p202
aS'movies-1-11374.txt'
p203
aS'movies-1-11391.txt'
p204
aS'movies-1-11396.txt'
p205
aS'movies-1-11400.txt'
p206
aS'movies-1-11409.txt'
p207
aS'movies-1-11410.txt'
p208
aS'movies-1-11411.txt'
p209
aS'movies-1-11424.txt'
p210
aS'movies-1-11428.txt'
p211
aS'movies-1-11432.txt'
p212
aS'movies-1-11434.txt'
p213
aS'movies-1-11436.txt'
p214
aS'movies-1-11437.txt'
p215
aS'movies-1-11439.txt'
p216
aS'movies-1-11441.txt'
p217
aS'movies-1-11445.txt'
p218
aS'movies-1-11449.txt'
p219
aS'movies-1-1145.txt'
p220
aS'movies-1-11450.txt'
p221
aS'movies-1-11458.txt'
p222
aS'movies-1-11469.txt'
p223
aS'movies-1-11470.txt'
p224
aS'movies-1-11484.txt'
p225
aS'movies-1-11497.txt'
p226
aS'movies-1-11499.txt'
p227
aS'movies-1-11508.txt'
p228
aS'movies-1-11511.txt'
p229
aS'movies-1-11515.txt'
p230
aS'movies-1-11517.txt'
p231
aS'movies-1-1152.txt'
p232
aS'movies-1-11535.txt'
p233
aS'movies-1-11537.txt'
p234
aS'movies-1-11538.txt'
p235
aS'movies-1-11542.txt'
p236
aS'movies-1-11543.txt'
p237
aS'movies-1-11544.txt'
p238
aS'movies-1-11547.txt'
p239
aS'movies-1-11557.txt'
p240
aS'movies-1-11569.txt'
p241
aS'movies-1-11576.txt'
p242
aS'movies-1-11579.txt'
p243
aS'movies-1-11590.txt'
p244
aS'movies-1-11613.txt'
p245
aS'movies-1-11616.txt'
p246
aS'movies-1-11625.txt'
p247
aS'movies-1-11627.txt'
p248
aS'movies-1-11641.txt'
p249
aS'movies-1-11643.txt'
p250
aS'movies-1-11652.txt'
p251
aS'movies-1-11660.txt'
p252
aS'movies-1-11664.txt'
p253
aS'movies-1-11669.txt'
p254
aS'movies-1-11671.txt'
p255
aS'movies-1-11676.txt'
p256
aS'movies-1-11683.txt'
p257
aS'movies-1-11703.txt'
p258
aS'movies-1-11705.txt'
p259
aS'movies-1-11716.txt'
p260
aS'movies-1-11720.txt'
p261
aS'movies-1-11723.txt'
p262
aS'movies-1-11726.txt'
p263
aS'movies-1-11730.txt'
p264
aS'movies-1-11734.txt'
p265
aS'movies-1-11740.txt'
p266
aS'movies-1-11759.txt'
p267
aS'movies-1-11761.txt'
p268
aS'movies-1-11763.txt'
p269
aS'movies-1-11771.txt'
p270
aS'movies-1-11775.txt'
p271
aS'movies-1-11777.txt'
p272
aS'movies-1-11781.txt'
p273
aS'movies-1-11783.txt'
p274
aS'movies-1-11786.txt'
p275
aS'movies-1-11788.txt'
p276
aS'movies-1-11791.txt'
p277
aS'movies-1-11797.txt'
p278
aS'movies-1-11799.txt'
p279
aS'movies-1-11802.txt'
p280
aS'movies-1-11805.txt'
p281
aS'movies-1-11808.txt'
p282
aS'movies-1-11810.txt'
p283
aS'movies-1-11813.txt'
p284
aS'movies-1-11814.txt'
p285
aS'movies-1-11817.txt'
p286
aS'movies-1-11819.txt'
p287
aS'movies-1-11820.txt'
p288
aS'movies-1-11823.txt'
p289
aS'movies-1-11827.txt'
p290
aS'movies-1-11828.txt'
p291
aS'movies-1-11831.txt'
p292
aS'movies-1-11832.txt'
p293
aS'movies-1-11833.txt'
p294
aS'movies-1-11836.txt'
p295
aS'movies-1-11838.txt'
p296
aS'movies-1-11843.txt'
p297
aS'movies-1-11852.txt'
p298
aS'movies-1-11853.txt'
p299
aS'movies-1-11856.txt'
p300
aS'movies-1-11860.txt'
p301
aS'movies-1-11862.txt'
p302
aS'movies-1-11863.txt'
p303
aS'movies-1-11868.txt'
p304
aS'movies-1-11872.txt'
p305
aS'movies-1-11888.txt'
p306
aS'movies-1-11892.txt'
p307
aS'movies-1-11901.txt'
p308
aS'movies-1-11902.txt'
p309
aS'movies-1-11913.txt'
p310
aS'movies-1-11916.txt'
p311
aS'movies-1-11922.txt'
p312
aS'movies-1-11933.txt'
p313
aS'movies-1-11938.txt'
p314
aS'movies-1-11939.txt'
p315
aS'movies-1-11941.txt'
p316
aS'movies-1-11945.txt'
p317
aS'movies-1-11946.txt'
p318
aS'movies-1-11947.txt'
p319
aS'movies-1-11960.txt'
p320
aS'movies-1-11967.txt'
p321
aS'movies-1-11971.txt'
p322
aS'movies-1-11978.txt'
p323
aS'movies-1-11980.txt'
p324
aS'movies-1-11983.txt'
p325
aS'movies-1-11984.txt'
p326
aS'movies-1-11989.txt'
p327
aS'movies-1-11990.txt'
p328
aS'movies-1-11998.txt'
p329
aS'movies-1-1200.txt'
p330
aS'movies-1-12009.txt'
p331
aS'movies-1-1201.txt'
p332
aS'movies-1-12014.txt'
p333
aS'movies-1-12016.txt'
p334
aS'movies-1-12020.txt'
p335
aS'movies-1-12022.txt'
p336
aS'movies-1-12024.txt'
p337
aS'movies-1-12025.txt'
p338
aS'movies-1-12026.txt'
p339
aS'movies-1-12027.txt'
p340
aS'movies-1-12029.txt'
p341
aS'movies-1-1203.txt'
p342
aS'movies-1-12032.txt'
p343
aS'movies-1-12033.txt'
p344
aS'movies-1-12034.txt'
p345
aS'movies-1-12039.txt'
p346
aS'movies-1-12042.txt'
p347
aS'movies-1-12043.txt'
p348
aS'movies-1-12044.txt'
p349
aS'movies-1-12047.txt'
p350
aS'movies-1-12049.txt'
p351
aS'movies-1-12051.txt'
p352
aS'movies-1-12057.txt'
p353
aS'movies-1-12064.txt'
p354
aS'movies-1-12065.txt'
p355
aS'movies-1-12069.txt'
p356
aS'movies-1-12072.txt'
p357
aS'movies-1-12074.txt'
p358
aS'movies-1-12075.txt'
p359
aS'movies-1-12079.txt'
p360
aS'movies-1-12081.txt'
p361
aS'movies-1-12090.txt'
p362
aS'movies-1-12097.txt'
p363
aS'movies-1-12101.txt'
p364
aS'movies-1-12104.txt'
p365
aS'movies-1-12114.txt'
p366
aS'movies-1-12115.txt'
p367
aS'movies-1-12116.txt'
p368
aS'movies-1-12118.txt'
p369
aS'movies-1-1212.txt'
p370
aS'movies-1-12129.txt'
p371
aS'movies-1-12131.txt'
p372
aS'movies-1-12134.txt'
p373
aS'movies-1-12139.txt'
p374
aS'movies-1-12141.txt'
p375
aS'movies-1-12144.txt'
p376
aS'movies-1-12151.txt'
p377
aS'movies-1-12154.txt'
p378
aS'movies-1-12155.txt'
p379
aS'movies-1-12163.txt'
p380
aS'movies-1-12166.txt'
p381
aS'movies-1-12170.txt'
p382
aS'movies-1-12171.txt'
p383
aS'movies-1-12174.txt'
p384
aS'movies-1-12178.txt'
p385
aS'movies-1-12185.txt'
p386
aS'movies-1-12186.txt'
p387
aS'movies-1-12188.txt'
p388
aS'movies-1-12193.txt'
p389
aS'movies-1-12197.txt'
p390
aS'movies-1-12199.txt'
p391
aS'movies-1-12200.txt'
p392
aS'movies-1-12201.txt'
p393
aS'movies-1-12203.txt'
p394
aS'movies-1-12205.txt'
p395
aS'movies-1-12206.txt'
p396
aS'movies-1-1221.txt'
p397
aS'movies-1-12210.txt'
p398
aS'movies-1-12213.txt'
p399
aS'movies-1-12214.txt'
p400
aS'movies-1-12216.txt'
p401
aS'movies-1-12219.txt'
p402
aS'movies-1-1222.txt'
p403
aS'movies-1-12222.txt'
p404
aS'movies-1-12223.txt'
p405
aS'movies-1-12224.txt'
p406
aS'movies-1-12227.txt'
p407
aS'movies-1-12229.txt'
p408
aS'movies-1-12230.txt'
p409
aS'movies-1-12234.txt'
p410
aS'movies-1-12236.txt'
p411
aS'movies-1-12245.txt'
p412
aS'movies-1-12248.txt'
p413
aS'movies-1-12251.txt'
p414
aS'movies-1-12254.txt'
p415
aS'movies-1-12255.txt'
p416
aS'movies-1-12256.txt'
p417
aS'movies-1-12257.txt'
p418
aS'movies-1-12263.txt'
p419
aS'movies-1-12264.txt'
p420
aS'movies-1-12265.txt'
p421
aS'movies-1-12267.txt'
p422
aS'movies-1-12268.txt'
p423
aS'movies-1-12269.txt'
p424
aS'movies-1-12271.txt'
p425
aS'movies-1-12272.txt'
p426
aS'movies-1-12274.txt'
p427
aS'movies-1-12279.txt'
p428
aS'movies-1-12281.txt'
p429
aS'movies-1-12282.txt'
p430
aS'movies-1-12284.txt'
p431
aS'movies-1-12285.txt'
p432
aS'movies-1-12288.txt'
p433
aS'movies-1-12290.txt'
p434
aS'movies-1-12291.txt'
p435
aS'movies-1-12298.txt'
p436
aS'movies-1-12303.txt'
p437
aS'movies-1-12305.txt'
p438
aS'movies-1-12308.txt'
p439
aS'movies-1-12309.txt'
p440
aS'movies-1-1231.txt'
p441
aS'movies-1-12310.txt'
p442
aS'movies-1-1232.txt'
p443
aS'movies-1-12437.txt'
p444
aS'movies-1-1245.txt'
p445
aS'movies-1-12469.txt'
p446
aS'movies-1-1247.txt'
p447
aS'movies-1-12478.txt'
p448
aS'movies-1-12520.txt'
p449
aS'movies-1-12526.txt'
p450
aS'movies-1-12532.txt'
p451
aS'movies-1-12538.txt'
p452
aS'movies-1-1254.txt'
p453
aS'movies-1-12545.txt'
p454
aS'movies-1-12550.txt'
p455
aS'movies-1-12554.txt'
p456
aS'movies-1-12570.txt'
p457
aS'movies-1-12573.txt'
p458
aS'movies-1-12580.txt'
p459
aS'movies-1-12589.txt'
p460
aS'movies-1-12591.txt'
p461
aS'movies-1-12596.txt'
p462
aS'movies-1-12600.txt'
p463
aS'movies-1-12601.txt'
p464
aS'movies-1-12612.txt'
p465
aS'movies-1-12616.txt'
p466
aS'movies-1-12620.txt'
p467
aS'movies-1-12621.txt'
p468
aS'movies-1-12622.txt'
p469
aS'movies-1-12625.txt'
p470
aS'movies-1-12629.txt'
p471
aS'movies-1-12641.txt'
p472
aS'movies-1-12645.txt'
p473
aS'movies-1-12648.txt'
p474
aS'movies-1-12656.txt'
p475
aS'movies-1-12657.txt'
p476
aS'movies-1-12658.txt'
p477
aS'movies-1-12660.txt'
p478
aS'movies-1-12662.txt'
p479
aS'movies-1-12663.txt'
p480
aS'movies-1-12666.txt'
p481
aS'movies-1-12667.txt'
p482
aS'movies-1-12668.txt'
p483
aS'movies-1-1267.txt'
p484
aS'movies-1-12671.txt'
p485
aS'movies-1-12672.txt'
p486
aS'movies-1-12676.txt'
p487
aS'movies-1-12679.txt'
p488
aS'movies-1-1268.txt'
p489
aS'movies-1-12680.txt'
p490
aS'movies-1-12681.txt'
p491
aS'movies-1-12682.txt'
p492
aS'movies-1-12683.txt'
p493
aS'movies-1-12684.txt'
p494
aS'movies-1-12687.txt'
p495
aS'movies-1-12688.txt'
p496
aS'movies-1-12694.txt'
p497
aS'movies-1-12695.txt'
p498
aS'movies-1-12711.txt'
p499
aS'movies-1-12712.txt'
p500
aS'movies-1-12715.txt'
p501
aS'movies-1-12717.txt'
p502
aS'movies-1-12725.txt'
p503
aS'movies-1-12730.txt'
p504
aS'movies-1-12740.txt'
p505
aS'movies-1-12741.txt'
p506
aS'movies-1-12743.txt'
p507
aS'movies-1-12744.txt'
p508
aS'movies-1-12746.txt'
p509
aS'movies-1-12747.txt'
p510
aS'movies-1-12748.txt'
p511
aS'movies-1-12753.txt'
p512
aS'movies-1-12754.txt'
p513
aS'movies-1-12755.txt'
p514
aS'movies-1-12756.txt'
p515
aS'movies-1-12757.txt'
p516
aS'movies-1-12761.txt'
p517
aS'movies-1-12765.txt'
p518
aS'movies-1-12767.txt'
p519
aS'movies-1-12771.txt'
p520
aS'movies-1-12772.txt'
p521
aS'movies-1-12779.txt'
p522
aS'movies-1-12781.txt'
p523
aS'movies-1-12782.txt'
p524
aS'movies-1-12785.txt'
p525
aS'movies-1-12790.txt'
p526
aS'movies-1-12793.txt'
p527
aS'movies-1-12794.txt'
p528
aS'movies-1-12795.txt'
p529
aS'movies-1-12803.txt'
p530
aS'movies-1-12816.txt'
p531
aS'movies-1-12838.txt'
p532
aS'movies-1-12840.txt'
p533
aS'movies-1-12844.txt'
p534
aS'movies-1-12845.txt'
p535
aS'movies-1-12846.txt'
p536
aS'movies-1-12848.txt'
p537
aS'movies-1-12850.txt'
p538
aS'movies-1-12852.txt'
p539
aS'movies-1-12853.txt'
p540
aS'movies-1-12854.txt'
p541
aS'movies-1-12855.txt'
p542
aS'movies-1-12856.txt'
p543
aS'movies-1-12870.txt'
p544
aS'movies-1-1289.txt'
p545
aS'movies-1-12905.txt'
p546
aS'movies-1-1297.txt'
p547
aS'movies-1-13005.txt'
p548
aS'movies-1-13015.txt'
p549
aS'movies-1-13040.txt'
p550
aS'movies-1-1305.txt'
p551
aS'movies-1-1306.txt'
p552
aS'movies-1-13070.txt'
p553
aS'movies-1-13075.txt'
p554
aS'movies-1-13076.txt'
p555
aS'movies-1-13089.txt'
p556
aS'movies-1-13092.txt'
p557
aS'movies-1-13097.txt'
p558
aS'movies-1-131.txt'
p559
aS'movies-1-1310.txt'
p560
aS'movies-1-1312.txt'
p561
aS'movies-1-1315.txt'
p562
aS'movies-1-13156.txt'
p563
aS'movies-1-13275.txt'
p564
aS'movies-1-13281.txt'
p565
aS'movies-1-13283.txt'
p566
aS'movies-1-13316.txt'
p567
aS'movies-1-1332.txt'
p568
aS'movies-1-1335.txt'
p569
aS'movies-1-13350.txt'
p570
aS'movies-1-13354.txt'
p571
aS'movies-1-13373.txt'
p572
aS'movies-1-13380.txt'
p573
aS'movies-1-13387.txt'
p574
aS'movies-1-13397.txt'
p575
aS'movies-1-13405.txt'
p576
aS'movies-1-13481.txt'
p577
aS'movies-1-13512.txt'
p578
aS'movies-1-13523.txt'
p579
aS'movies-1-13524.txt'
p580
aS'movies-1-13536.txt'
p581
aS'movies-1-13542.txt'
p582
aS'movies-1-13543.txt'
p583
aS'movies-1-13551.txt'
p584
aS'movies-1-13552.txt'
p585
aS'movies-1-13558.txt'
p586
aS'movies-1-13570.txt'
p587
aS'movies-1-13600.txt'
p588
aS'movies-1-13609.txt'
p589
aS'movies-1-13610.txt'
p590
aS'movies-1-13617.txt'
p591
aS'movies-1-13619.txt'
p592
aS'movies-1-13636.txt'
p593
aS'movies-1-13642.txt'
p594
aS'movies-1-13645.txt'
p595
aS'movies-1-13689.txt'
p596
aS'movies-1-13744.txt'
p597
aS'movies-1-13748.txt'
p598
aS'movies-1-13752.txt'
p599
aS'movies-1-13758.txt'
p600
aS'movies-1-13761.txt'
p601
aS'movies-1-13787.txt'
p602
aS'movies-1-13827.txt'
p603
aS'movies-1-13836.txt'
p604
aS'movies-1-13933.txt'
p605
aS'movies-1-13935.txt'
p606
aS'movies-1-13936.txt'
p607
aS'movies-1-13939.txt'
p608
aS'movies-1-13960.txt'
p609
aS'movies-1-13976.txt'
p610
aS'movies-1-13979.txt'
p611
aS'movies-1-13984.txt'
p612
aS'movies-1-13989.txt'
p613
aS'movies-1-13991.txt'
p614
aS'movies-1-14028.txt'
p615
aS'movies-1-14066.txt'
p616
aS'movies-1-14133.txt'
p617
aS'movies-1-1414.txt'
p618
aS'movies-1-14205.txt'
p619
aS'movies-1-14224.txt'
p620
aS'movies-1-14228.txt'
p621
aS'movies-1-14229.txt'
p622
aS'movies-1-14230.txt'
p623
aS'movies-1-14231.txt'
p624
aS'movies-1-14233.txt'
p625
aS'movies-1-14238.txt'
p626
aS'movies-1-14251.txt'
p627
aS'movies-1-14260.txt'
p628
aS'movies-1-14268.txt'
p629
aS'movies-1-14276.txt'
p630
aS'movies-1-14280.txt'
p631
aS'movies-1-14287.txt'
p632
aS'movies-1-1432.txt'
p633
aS'movies-1-14331.txt'
p634
aS'movies-1-1437.txt'
p635
aS'movies-1-1438.txt'
p636
aS'movies-1-14394.txt'
p637
aS'movies-1-14405.txt'
p638
aS'movies-1-1441.txt'
p639
aS'movies-1-14416.txt'
p640
aS'movies-1-1446.txt'
p641
aS'movies-1-14479.txt'
p642
aS'movies-1-14485.txt'
p643
aS'movies-1-14491.txt'
p644
aS'movies-1-14498.txt'
p645
aS'movies-1-14505.txt'
p646
aS'movies-1-14506.txt'
p647
aS'movies-1-14509.txt'
p648
aS'movies-1-1452.txt'
p649
aS'movies-1-14528.txt'
p650
aS'movies-1-14530.txt'
p651
aS'movies-1-14544.txt'
p652
aS'movies-1-14625.txt'
p653
aS'movies-1-14626.txt'
p654
aS'movies-1-14627.txt'
p655
aS'movies-1-14628.txt'
p656
aS'movies-1-1464.txt'
p657
aS'movies-1-14686.txt'
p658
aS'movies-1-14705.txt'
p659
aS'movies-1-1472.txt'
p660
aS'movies-1-14741.txt'
p661
aS'movies-1-14751.txt'
p662
aS'movies-1-14762.txt'
p663
aS'movies-1-14820.txt'
p664
aS'movies-1-14864.txt'
p665
aS'movies-1-14867.txt'
p666
aS'movies-1-1487.txt'
p667
aS'movies-1-14874.txt'
p668
aS'movies-1-14892.txt'
p669
aS'movies-1-14896.txt'
p670
aS'movies-1-14899.txt'
p671
aS'movies-1-14951.txt'
p672
aS'movies-1-14966.txt'
p673
aS'movies-1-14970.txt'
p674
aS'movies-1-15004.txt'
p675
aS'movies-1-15020.txt'
p676
aS'movies-1-1503.txt'
p677
aS'movies-1-15049.txt'
p678
aS'movies-1-15051.txt'
p679
aS'movies-1-15066.txt'
p680
aS'movies-1-15067.txt'
p681
aS'movies-1-15071.txt'
p682
aS'movies-1-15072.txt'
p683
aS'movies-1-15074.txt'
p684
aS'movies-1-15081.txt'
p685
aS'movies-1-15090.txt'
p686
aS'movies-1-15104.txt'
p687
aS'movies-1-15107.txt'
p688
aS'movies-1-15110.txt'
p689
aS'movies-1-15116.txt'
p690
aS'movies-1-15120.txt'
p691
aS'movies-1-15132.txt'
p692
aS'movies-1-15152.txt'
p693
aS'movies-1-15154.txt'
p694
aS'movies-1-15157.txt'
p695
aS'movies-1-15159.txt'
p696
aS'movies-1-15162.txt'
p697
aS'movies-1-15193.txt'
p698
aS'movies-1-15202.txt'
p699
aS'movies-1-15255.txt'
p700
aS'movies-1-15271.txt'
p701
aS'movies-1-15285.txt'
p702
aS'movies-1-15330.txt'
p703
aS'movies-1-15367.txt'
p704
aS'movies-1-15378.txt'
p705
aS'movies-1-15382.txt'
p706
aS'movies-1-15402.txt'
p707
aS'movies-1-15438.txt'
p708
aS'movies-1-15441.txt'
p709
aS'movies-1-15461.txt'
p710
aS'movies-1-15465.txt'
p711
aS'movies-1-15484.txt'
p712
aS'movies-1-15498.txt'
p713
aS'movies-1-15502.txt'
p714
aS'movies-1-15509.txt'
p715
aS'movies-1-15511.txt'
p716
aS'movies-1-15512.txt'
p717
aS'movies-1-15517.txt'
p718
aS'movies-1-15520.txt'
p719
aS'movies-1-15530.txt'
p720
aS'movies-1-15531.txt'
p721
aS'movies-1-15532.txt'
p722
aS'movies-1-15534.txt'
p723
aS'movies-1-15535.txt'
p724
aS'movies-1-15540.txt'
p725
aS'movies-1-15541.txt'
p726
aS'movies-1-15543.txt'
p727
aS'movies-1-15548.txt'
p728
aS'movies-1-15554.txt'
p729
aS'movies-1-15557.txt'
p730
aS'movies-1-15578.txt'
p731
aS'movies-1-15579.txt'
p732
aS'movies-1-15596.txt'
p733
aS'movies-1-15604.txt'
p734
aS'movies-1-15627.txt'
p735
aS'movies-1-15628.txt'
p736
aS'movies-1-15637.txt'
p737
aS'movies-1-15638.txt'
p738
aS'movies-1-15641.txt'
p739
aS'movies-1-15644.txt'
p740
aS'movies-1-15646.txt'
p741
aS'movies-1-15653.txt'
p742
aS'movies-1-15686.txt'
p743
aS'movies-1-15708.txt'
p744
aS'movies-1-15744.txt'
p745
aS'movies-1-15770.txt'
p746
aS'movies-1-15786.txt'
p747
aS'movies-1-15795.txt'
p748
aS'movies-1-15804.txt'
p749
aS'movies-1-15815.txt'
p750
aS'movies-1-15820.txt'
p751
aS'movies-1-15825.txt'
p752
aS'movies-1-15839.txt'
p753
aS'movies-1-15849.txt'
p754
aS'movies-1-15853.txt'
p755
aS'movies-1-15861.txt'
p756
aS'movies-1-15880.txt'
p757
aS'movies-1-15881.txt'
p758
aS'movies-1-15883.txt'
p759
aS'movies-1-15904.txt'
p760
aS'movies-1-15910.txt'
p761
aS'movies-1-15918.txt'
p762
aS'movies-1-15921.txt'
p763
aS'movies-1-15923.txt'
p764
aS'movies-1-15933.txt'
p765
aS'movies-1-15938.txt'
p766
aS'movies-1-15943.txt'
p767
aS'movies-1-15947.txt'
p768
aS'movies-1-15956.txt'
p769
aS'movies-1-15960.txt'
p770
aS'movies-1-15963.txt'
p771
aS'movies-1-15968.txt'
p772
aS'movies-1-15986.txt'
p773
aS'movies-1-15989.txt'
p774
aS'movies-1-15991.txt'
p775
aS'movies-1-15998.txt'
p776
aS'movies-1-1600.txt'
p777
aS'movies-1-16002.txt'
p778
aS'movies-1-16010.txt'
p779
aS'movies-1-16024.txt'
p780
aS'movies-1-1603.txt'
p781
aS'movies-1-1605.txt'
p782
aS'movies-1-16087.txt'
p783
aS'movies-1-16095.txt'
p784
aS'movies-1-16127.txt'
p785
aS'movies-1-16131.txt'
p786
aS'movies-1-16143.txt'
p787
aS'movies-1-16146.txt'
p788
aS'movies-1-16161.txt'
p789
aS'movies-1-16163.txt'
p790
aS'movies-1-16168.txt'
p791
aS'movies-1-16178.txt'
p792
aS'movies-1-16185.txt'
p793
aS'movies-1-16188.txt'
p794
aS'movies-1-16190.txt'
p795
aS'movies-1-16191.txt'
p796
aS'movies-1-16192.txt'
p797
aS'movies-1-16199.txt'
p798
aS'movies-1-16209.txt'
p799
aS'movies-1-16213.txt'
p800
aS'movies-1-16222.txt'
p801
aS'movies-1-16233.txt'
p802
aS'movies-1-16249.txt'
p803
aS'movies-1-16252.txt'
p804
aS'movies-1-16263.txt'
p805
aS'movies-1-16269.txt'
p806
aS'movies-1-16277.txt'
p807
aS'movies-1-1628.txt'
p808
aS'movies-1-16282.txt'
p809
aS'movies-1-16289.txt'
p810
aS'movies-1-16307.txt'
p811
aS'movies-1-1632.txt'
p812
aS'movies-1-1633.txt'
p813
aS'movies-1-16334.txt'
p814
aS'movies-1-16338.txt'
p815
aS'movies-1-1634.txt'
p816
aS'movies-1-16341.txt'
p817
aS'movies-1-16343.txt'
p818
aS'movies-1-16346.txt'
p819
aS'movies-1-16347.txt'
p820
aS'movies-1-16349.txt'
p821
aS'movies-1-16350.txt'
p822
aS'movies-1-16352.txt'
p823
aS'movies-1-16353.txt'
p824
aS'movies-1-16355.txt'
p825
aS'movies-1-16358.txt'
p826
aS'movies-1-16363.txt'
p827
aS'movies-1-16369.txt'
p828
aS'movies-1-16381.txt'
p829
aS'movies-1-16382.txt'
p830
aS'movies-1-16386.txt'
p831
aS'movies-1-16389.txt'
p832
aS'movies-1-16400.txt'
p833
aS'movies-1-16404.txt'
p834
aS'movies-1-16405.txt'
p835
aS'movies-1-16414.txt'
p836
aS'movies-1-16416.txt'
p837
aS'movies-1-16435.txt'
p838
aS'movies-1-16439.txt'
p839
aS'movies-1-1644.txt'
p840
aS'movies-1-16447.txt'
p841
aS'movies-1-16462.txt'
p842
aS'movies-1-16463.txt'
p843
aS'movies-1-16464.txt'
p844
aS'movies-1-16474.txt'
p845
aS'movies-1-16481.txt'
p846
aS'movies-1-16488.txt'
p847
aS'movies-1-16518.txt'
p848
aS'movies-1-16547.txt'
p849
aS'movies-1-16568.txt'
p850
aS'movies-1-16581.txt'
p851
aS'movies-1-16600.txt'
p852
aS'movies-1-16601.txt'
p853
aS'movies-1-16626.txt'
p854
aS'movies-1-16637.txt'
p855
aS'movies-1-16641.txt'
p856
aS'movies-1-16647.txt'
p857
aS'movies-1-16664.txt'
p858
aS'movies-1-16678.txt'
p859
aS'movies-1-16680.txt'
p860
aS'movies-1-16683.txt'
p861
aS'movies-1-16708.txt'
p862
aS'movies-1-16712.txt'
p863
aS'movies-1-16714.txt'
p864
aS'movies-1-16717.txt'
p865
aS'movies-1-16726.txt'
p866
aS'movies-1-16727.txt'
p867
aS'movies-1-16741.txt'
p868
aS'movies-1-16746.txt'
p869
aS'movies-1-1675.txt'
p870
aS'movies-1-16767.txt'
p871
aS'movies-1-16768.txt'
p872
aS'movies-1-16769.txt'
p873
aS'movies-1-16773.txt'
p874
aS'movies-1-1678.txt'
p875
aS'movies-1-16789.txt'
p876
aS'movies-1-16790.txt'
p877
aS'movies-1-168.txt'
p878
aS'movies-1-16801.txt'
p879
aS'movies-1-16808.txt'
p880
aS'movies-1-16819.txt'
p881
aS'movies-1-16821.txt'
p882
aS'movies-1-16834.txt'
p883
aS'movies-1-16840.txt'
p884
aS'movies-1-16843.txt'
p885
aS'movies-1-16845.txt'
p886
aS'movies-1-1685.txt'
p887
aS'movies-1-16865.txt'
p888
aS'movies-1-1687.txt'
p889
aS'movies-1-16871.txt'
p890
aS'movies-1-16873.txt'
p891
aS'movies-1-16882.txt'
p892
aS'movies-1-16885.txt'
p893
aS'movies-1-16890.txt'
p894
aS'movies-1-16892.txt'
p895
aS'movies-1-16906.txt'
p896
aS'movies-1-16908.txt'
p897
aS'movies-1-16911.txt'
p898
aS'movies-1-16924.txt'
p899
aS'movies-1-16929.txt'
p900
aS'movies-1-16935.txt'
p901
aS'movies-1-16937.txt'
p902
aS'movies-1-16951.txt'
p903
aS'movies-1-16955.txt'
p904
aS'movies-1-16956.txt'
p905
aS'movies-1-16961.txt'
p906
aS'movies-1-16962.txt'
p907
aS'movies-1-16967.txt'
p908
aS'movies-1-16973.txt'
p909
aS'movies-1-16982.txt'
p910
aS'movies-1-16986.txt'
p911
aS'movies-1-16990.txt'
p912
aS'movies-1-16991.txt'
p913
aS'movies-1-16993.txt'
p914
aS'movies-1-16996.txt'
p915
aS'movies-1-16997.txt'
p916
aS'movies-1-16998.txt'
p917
aS'movies-1-170.txt'
p918
aS'movies-1-17000.txt'
p919
aS'movies-1-17003.txt'
p920
aS'movies-1-1701.txt'
p921
aS'movies-1-17010.txt'
p922
aS'movies-1-17011.txt'
p923
aS'movies-1-17012.txt'
p924
aS'movies-1-17018.txt'
p925
aS'movies-1-17023.txt'
p926
aS'movies-1-17024.txt'
p927
aS'movies-1-17030.txt'
p928
aS'movies-1-17034.txt'
p929
aS'movies-1-17035.txt'
p930
aS'movies-1-17045.txt'
p931
aS'movies-1-17051.txt'
p932
aS'movies-1-17055.txt'
p933
aS'movies-1-17057.txt'
p934
aS'movies-1-17060.txt'
p935
aS'movies-1-17072.txt'
p936
aS'movies-1-17083.txt'
p937
aS'movies-1-17084.txt'
p938
aS'movies-1-17086.txt'
p939
aS'movies-1-17088.txt'
p940
aS'movies-1-17093.txt'
p941
aS'movies-1-17108.txt'
p942
aS'movies-1-17111.txt'
p943
aS'movies-1-17113.txt'
p944
aS'movies-1-17117.txt'
p945
aS'movies-1-17119.txt'
p946
aS'movies-1-17120.txt'
p947
aS'movies-1-17124.txt'
p948
aS'movies-1-17136.txt'
p949
aS'movies-1-17138.txt'
p950
aS'movies-1-17143.txt'
p951
aS'movies-1-17144.txt'
p952
aS'movies-1-17147.txt'
p953
aS'movies-1-17151.txt'
p954
aS'movies-1-17152.txt'
p955
aS'movies-1-17171.txt'
p956
aS'movies-1-17185.txt'
p957
aS'movies-1-17187.txt'
p958
aS'movies-1-17191.txt'
p959
aS'movies-1-17194.txt'
p960
aS'movies-1-17195.txt'
p961
aS'movies-1-17198.txt'
p962
aS'movies-1-17200.txt'
p963
aS'movies-1-17202.txt'
p964
aS'movies-1-17203.txt'
p965
aS'movies-1-17207.txt'
p966
aS'movies-1-17209.txt'
p967
aS'movies-1-17210.txt'
p968
aS'movies-1-17211.txt'
p969
aS'movies-1-17217.txt'
p970
aS'movies-1-17219.txt'
p971
aS'movies-1-17220.txt'
p972
aS'movies-1-17221.txt'
p973
aS'movies-1-17223.txt'
p974
aS'movies-1-17224.txt'
p975
aS'movies-1-17229.txt'
p976
aS'movies-1-17230.txt'
p977
aS'movies-1-17231.txt'
p978
aS'movies-1-17232.txt'
p979
aS'movies-1-17234.txt'
p980
aS'movies-1-17235.txt'
p981
aS'movies-1-17236.txt'
p982
aS'movies-1-17238.txt'
p983
aS'movies-1-17239.txt'
p984
aS'movies-1-17240.txt'
p985
aS'movies-1-17241.txt'
p986
aS'movies-1-17242.txt'
p987
aS'movies-1-17244.txt'
p988
aS'movies-1-17245.txt'
p989
aS'movies-1-17246.txt'
p990
aS'movies-1-17247.txt'
p991
aS'movies-1-17248.txt'
p992
aS'movies-1-17287.txt'
p993
aS'movies-1-17293.txt'
p994
aS'movies-1-17299.txt'
p995
aS'movies-1-1735.txt'
p996
aS'movies-1-17354.txt'
p997
aS'movies-1-1738.txt'
p998
aS'movies-1-174.txt'
p999
aS'movies-1-1744.txt'
p1000
aS'movies-1-17487.txt'
p1001
aS'movies-1-17490.txt'
p1002
aS'movies-1-1751.txt'
p1003
aS'movies-1-1757.txt'
p1004
aS'movies-1-1759.txt'
p1005
aS'movies-1-17594.txt'
p1006
aS'movies-1-176.txt'
p1007
aS'movies-1-17600.txt'
p1008
aS'movies-1-17607.txt'
p1009
aS'movies-1-17611.txt'
p1010
aS'movies-1-17613.txt'
p1011
aS'movies-1-17642.txt'
p1012
aS'movies-1-17648.txt'
p1013
aS'movies-1-17661.txt'
p1014
aS'movies-1-17662.txt'
p1015
aS'movies-1-17676.txt'
p1016
aS'movies-1-17699.txt'
p1017
aS'movies-1-177.txt'
p1018
aS'movies-1-17715.txt'
p1019
aS'movies-1-17763.txt'
p1020
aS'movies-1-17793.txt'
p1021
aS'movies-1-17801.txt'
p1022
aS'movies-1-17803.txt'
p1023
aS'movies-1-17828.txt'
p1024
aS'movies-1-17829.txt'
p1025
aS'movies-1-17833.txt'
p1026
aS'movies-1-17834.txt'
p1027
aS'movies-1-1786.txt'
p1028
aS'movies-1-17869.txt'
p1029
aS'movies-1-17870.txt'
p1030
aS'movies-1-17878.txt'
p1031
aS'movies-1-17880.txt'
p1032
aS'movies-1-17885.txt'
p1033
aS'movies-1-17886.txt'
p1034
aS'movies-1-17894.txt'
p1035
aS'movies-1-17895.txt'
p1036
aS'movies-1-17896.txt'
p1037
aS'movies-1-17903.txt'
p1038
aS'movies-1-17904.txt'
p1039
aS'movies-1-17905.txt'
p1040
aS'movies-1-17906.txt'
p1041
aS'movies-1-17909.txt'
p1042
aS'movies-1-17921.txt'
p1043
aS'movies-1-17935.txt'
p1044
aS'movies-1-17944.txt'
p1045
aS'movies-1-17946.txt'
p1046
aS'movies-1-17963.txt'
p1047
aS'movies-1-18007.txt'
p1048
aS'movies-1-18010.txt'
p1049
aS'movies-1-18015.txt'
p1050
aS'movies-1-18016.txt'
p1051
aS'movies-1-18026.txt'
p1052
aS'movies-1-18057.txt'
p1053
aS'movies-1-18074.txt'
p1054
aS'movies-1-18077.txt'
p1055
aS'movies-1-18141.txt'
p1056
aS'movies-1-18142.txt'
p1057
aS'movies-1-18143.txt'
p1058
aS'movies-1-18145.txt'
p1059
aS'movies-1-18146.txt'
p1060
aS'movies-1-18148.txt'
p1061
aS'movies-1-18165.txt'
p1062
aS'movies-1-18167.txt'
p1063
aS'movies-1-18179.txt'
p1064
aS'movies-1-18180.txt'
p1065
aS'movies-1-18186.txt'
p1066
aS'movies-1-18194.txt'
p1067
aS'movies-1-18197.txt'
p1068
aS'movies-1-18198.txt'
p1069
aS'movies-1-18209.txt'
p1070
aS'movies-1-18222.txt'
p1071
aS'movies-1-18224.txt'
p1072
aS'movies-1-18249.txt'
p1073
aS'movies-1-18263.txt'
p1074
aS'movies-1-18297.txt'
p1075
aS'movies-1-18306.txt'
p1076
aS'movies-1-18309.txt'
p1077
aS'movies-1-18321.txt'
p1078
aS'movies-1-18350.txt'
p1079
aS'movies-1-18390.txt'
p1080
aS'movies-1-18413.txt'
p1081
aS'movies-1-18416.txt'
p1082
aS'movies-1-18420.txt'
p1083
aS'movies-1-18454.txt'
p1084
aS'movies-1-18455.txt'
p1085
aS'movies-1-18461.txt'
p1086
aS'movies-1-18462.txt'
p1087
aS'movies-1-18464.txt'
p1088
aS'movies-1-18466.txt'
p1089
aS'movies-1-18467.txt'
p1090
aS'movies-1-18475.txt'
p1091
aS'movies-1-18482.txt'
p1092
aS'movies-1-18486.txt'
p1093
aS'movies-1-18487.txt'
p1094
aS'movies-1-18496.txt'
p1095
aS'movies-1-18499.txt'
p1096
aS'movies-1-18503.txt'
p1097
aS'movies-1-18520.txt'
p1098
aS'movies-1-18556.txt'
p1099
aS'movies-1-18562.txt'
p1100
aS'movies-1-18574.txt'
p1101
aS'movies-1-18575.txt'
p1102
aS'movies-1-18583.txt'
p1103
aS'movies-1-18589.txt'
p1104
aS'movies-1-18597.txt'
p1105
aS'movies-1-18616.txt'
p1106
aS'movies-1-18621.txt'
p1107
aS'movies-1-18625.txt'
p1108
aS'movies-1-18633.txt'
p1109
aS'movies-1-18678.txt'
p1110
aS'movies-1-18690.txt'
p1111
aS'movies-1-18695.txt'
p1112
aS'movies-1-18699.txt'
p1113
aS'movies-1-18704.txt'
p1114
aS'movies-1-18711.txt'
p1115
aS'movies-1-18715.txt'
p1116
aS'movies-1-18716.txt'
p1117
aS'movies-1-18722.txt'
p1118
aS'movies-1-18729.txt'
p1119
aS'movies-1-18732.txt'
p1120
aS'movies-1-18734.txt'
p1121
aS'movies-1-1874.txt'
p1122
aS'movies-1-18741.txt'
p1123
aS'movies-1-18748.txt'
p1124
aS'movies-1-18749.txt'
p1125
aS'movies-1-18750.txt'
p1126
aS'movies-1-18757.txt'
p1127
aS'movies-1-1876.txt'
p1128
aS'movies-1-18763.txt'
p1129
aS'movies-1-18773.txt'
p1130
aS'movies-1-18775.txt'
p1131
aS'movies-1-18802.txt'
p1132
aS'movies-1-18806.txt'
p1133
aS'movies-1-18807.txt'
p1134
aS'movies-1-18808.txt'
p1135
aS'movies-1-18811.txt'
p1136
aS'movies-1-18819.txt'
p1137
aS'movies-1-18828.txt'
p1138
aS'movies-1-18850.txt'
p1139
aS'movies-1-18875.txt'
p1140
aS'movies-1-18878.txt'
p1141
aS'movies-1-18890.txt'
p1142
aS'movies-1-18904.txt'
p1143
aS'movies-1-18906.txt'
p1144
aS'movies-1-18910.txt'
p1145
aS'movies-1-18911.txt'
p1146
aS'movies-1-18912.txt'
p1147
aS'movies-1-18915.txt'
p1148
aS'movies-1-18917.txt'
p1149
aS'movies-1-18924.txt'
p1150
aS'movies-1-18929.txt'
p1151
aS'movies-1-18942.txt'
p1152
aS'movies-1-18946.txt'
p1153
aS'movies-1-18980.txt'
p1154
aS'movies-1-18985.txt'
p1155
aS'movies-1-1900.txt'
p1156
aS'movies-1-19016.txt'
p1157
aS'movies-1-19019.txt'
p1158
aS'movies-1-19025.txt'
p1159
aS'movies-1-19039.txt'
p1160
aS'movies-1-1904.txt'
p1161
aS'movies-1-19056.txt'
p1162
aS'movies-1-19067.txt'
p1163
aS'movies-1-19070.txt'
p1164
aS'movies-1-19072.txt'
p1165
aS'movies-1-19105.txt'
p1166
aS'movies-1-19111.txt'
p1167
aS'movies-1-19129.txt'
p1168
aS'movies-1-19143.txt'
p1169
aS'movies-1-19152.txt'
p1170
aS'movies-1-19157.txt'
p1171
aS'movies-1-19160.txt'
p1172
aS'movies-1-19165.txt'
p1173
aS'movies-1-19196.txt'
p1174
aS'movies-1-19206.txt'
p1175
aS'movies-1-19216.txt'
p1176
aS'movies-1-19217.txt'
p1177
aS'movies-1-19221.txt'
p1178
aS'movies-1-19226.txt'
p1179
aS'movies-1-19230.txt'
p1180
aS'movies-1-19231.txt'
p1181
aS'movies-1-19234.txt'
p1182
aS'movies-1-19236.txt'
p1183
aS'movies-1-19248.txt'
p1184
aS'movies-1-19256.txt'
p1185
aS'movies-1-19258.txt'
p1186
aS'movies-1-19261.txt'
p1187
aS'movies-1-19275.txt'
p1188
aS'movies-1-19276.txt'
p1189
aS'movies-1-19279.txt'
p1190
aS'movies-1-19296.txt'
p1191
aS'movies-1-19304.txt'
p1192
aS'movies-1-19328.txt'
p1193
aS'movies-1-19353.txt'
p1194
aS'movies-1-19361.txt'
p1195
aS'movies-1-19366.txt'
p1196
aS'movies-1-19368.txt'
p1197
aS'movies-1-19369.txt'
p1198
aS'movies-1-19373.txt'
p1199
aS'movies-1-1938.txt'
p1200
aS'movies-1-19392.txt'
p1201
aS'movies-1-1940.txt'
p1202
aS'movies-1-19420.txt'
p1203
aS'movies-1-19432.txt'
p1204
aS'movies-1-19437.txt'
p1205
aS'movies-1-19442.txt'
p1206
aS'movies-1-19443.txt'
p1207
aS'movies-1-19446.txt'
p1208
aS'movies-1-19448.txt'
p1209
aS'movies-1-19449.txt'
p1210
aS'movies-1-19451.txt'
p1211
aS'movies-1-19452.txt'
p1212
aS'movies-1-19456.txt'
p1213
aS'movies-1-19457.txt'
p1214
aS'movies-1-19459.txt'
p1215
aS'movies-1-19461.txt'
p1216
aS'movies-1-19462.txt'
p1217
aS'movies-1-19472.txt'
p1218
aS'movies-1-19486.txt'
p1219
aS'movies-1-19498.txt'
p1220
aS'movies-1-19502.txt'
p1221
aS'movies-1-19504.txt'
p1222
aS'movies-1-19508.txt'
p1223
aS'movies-1-19511.txt'
p1224
aS'movies-1-19515.txt'
p1225
aS'movies-1-19518.txt'
p1226
aS'movies-1-19519.txt'
p1227
aS'movies-1-19520.txt'
p1228
aS'movies-1-19524.txt'
p1229
aS'movies-1-19526.txt'
p1230
aS'movies-1-19541.txt'
p1231
aS'movies-1-19546.txt'
p1232
aS'movies-1-19547.txt'
p1233
aS'movies-1-19551.txt'
p1234
aS'movies-1-19558.txt'
p1235
aS'movies-1-19561.txt'
p1236
aS'movies-1-19578.txt'
p1237
aS'movies-1-19584.txt'
p1238
aS'movies-1-19585.txt'
p1239
aS'movies-1-19586.txt'
p1240
aS'movies-1-19588.txt'
p1241
aS'movies-1-19600.txt'
p1242
aS'movies-1-19606.txt'
p1243
aS'movies-1-19616.txt'
p1244
aS'movies-1-19622.txt'
p1245
aS'movies-1-19638.txt'
p1246
aS'movies-1-19641.txt'
p1247
aS'movies-1-19642.txt'
p1248
aS'movies-1-19643.txt'
p1249
aS'movies-1-19653.txt'
p1250
aS'movies-1-19661.txt'
p1251
aS'movies-1-19673.txt'
p1252
aS'movies-1-19683.txt'
p1253
aS'movies-1-19688.txt'
p1254
aS'movies-1-19692.txt'
p1255
aS'movies-1-19695.txt'
p1256
aS'movies-1-19706.txt'
p1257
aS'movies-1-19707.txt'
p1258
aS'movies-1-19716.txt'
p1259
aS'movies-1-19717.txt'
p1260
aS'movies-1-19718.txt'
p1261
aS'movies-1-19720.txt'
p1262
aS'movies-1-19724.txt'
p1263
aS'movies-1-19745.txt'
p1264
aS'movies-1-19747.txt'
p1265
aS'movies-1-19764.txt'
p1266
aS'movies-1-19766.txt'
p1267
aS'movies-1-19769.txt'
p1268
aS'movies-1-1977.txt'
p1269
aS'movies-1-19776.txt'
p1270
aS'movies-1-19780.txt'
p1271
aS'movies-1-19782.txt'
p1272
aS'movies-1-19784.txt'
p1273
aS'movies-1-19786.txt'
p1274
aS'movies-1-19788.txt'
p1275
aS'movies-1-19789.txt'
p1276
aS'movies-1-19794.txt'
p1277
aS'movies-1-19795.txt'
p1278
aS'movies-1-19798.txt'
p1279
aS'movies-1-19809.txt'
p1280
aS'movies-1-19827.txt'
p1281
aS'movies-1-19831.txt'
p1282
aS'movies-1-19832.txt'
p1283
aS'movies-1-19844.txt'
p1284
aS'movies-1-19848.txt'
p1285
aS'movies-1-19853.txt'
p1286
aS'movies-1-19866.txt'
p1287
aS'movies-1-19867.txt'
p1288
aS'movies-1-19873.txt'
p1289
aS'movies-1-19878.txt'
p1290
aS'movies-1-19881.txt'
p1291
aS'movies-1-19888.txt'
p1292
aS'movies-1-19892.txt'
p1293
aS'movies-1-19896.txt'
p1294
aS'movies-1-19903.txt'
p1295
aS'movies-1-19904.txt'
p1296
aS'movies-1-19906.txt'
p1297
aS'movies-1-19907.txt'
p1298
aS'movies-1-19908.txt'
p1299
aS'movies-1-1991.txt'
p1300
aS'movies-1-19912.txt'
p1301
aS'movies-1-19913.txt'
p1302
aS'movies-1-19918.txt'
p1303
aS'movies-1-19927.txt'
p1304
aS'movies-1-19948.txt'
p1305
aS'movies-1-19953.txt'
p1306
aS'movies-1-19954.txt'
p1307
aS'movies-1-19968.txt'
p1308
aS'movies-1-19970.txt'
p1309
aS'movies-1-19973.txt'
p1310
aS'movies-1-19974.txt'
p1311
aS'movies-1-19975.txt'
p1312
aS'movies-1-19977.txt'
p1313
aS'movies-1-19988.txt'
p1314
aS'movies-1-19989.txt'
p1315
aS'movies-1-19995.txt'
p1316
aS'movies-1-19996.txt'
p1317
aS'movies-1-19997.txt'
p1318
aS'movies-1-19998.txt'
p1319
aS'movies-1-19999.txt'
p1320
aS'movies-1-20000.txt'
p1321
aS'movies-1-20004.txt'
p1322
aS'movies-1-20006.txt'
p1323
aS'movies-1-20013.txt'
p1324
aS'movies-1-20014.txt'
p1325
aS'movies-1-20016.txt'
p1326
aS'movies-1-20017.txt'
p1327
aS'movies-1-20018.txt'
p1328
aS'movies-1-20019.txt'
p1329
aS'movies-1-20022.txt'
p1330
aS'movies-1-20025.txt'
p1331
aS'movies-1-20030.txt'
p1332
aS'movies-1-20033.txt'
p1333
aS'movies-1-20035.txt'
p1334
aS'movies-1-20036.txt'
p1335
aS'movies-1-20038.txt'
p1336
aS'movies-1-20039.txt'
p1337
aS'movies-1-20040.txt'
p1338
aS'movies-1-20041.txt'
p1339
aS'movies-1-20045.txt'
p1340
aS'movies-1-20046.txt'
p1341
aS'movies-1-20047.txt'
p1342
aS'movies-1-2005.txt'
p1343
aS'movies-1-20050.txt'
p1344
aS'movies-1-20053.txt'
p1345
aS'movies-1-20055.txt'
p1346
aS'movies-1-20060.txt'
p1347
aS'movies-1-20061.txt'
p1348
aS'movies-1-20063.txt'
p1349
aS'movies-1-20065.txt'
p1350
aS'movies-1-20067.txt'
p1351
aS'movies-1-20070.txt'
p1352
aS'movies-1-20072.txt'
p1353
aS'movies-1-20078.txt'
p1354
aS'movies-1-20083.txt'
p1355
aS'movies-1-20088.txt'
p1356
aS'movies-1-20090.txt'
p1357
aS'movies-1-20095.txt'
p1358
aS'movies-1-20100.txt'
p1359
aS'movies-1-20102.txt'
p1360
aS'movies-1-20103.txt'
p1361
aS'movies-1-20104.txt'
p1362
aS'movies-1-20108.txt'
p1363
aS'movies-1-20114.txt'
p1364
aS'movies-1-20120.txt'
p1365
aS'movies-1-20126.txt'
p1366
aS'movies-1-20129.txt'
p1367
aS'movies-1-20130.txt'
p1368
aS'movies-1-20132.txt'
p1369
aS'movies-1-20142.txt'
p1370
aS'movies-1-20156.txt'
p1371
aS'movies-1-20159.txt'
p1372
aS'movies-1-20162.txt'
p1373
aS'movies-1-20164.txt'
p1374
aS'movies-1-20169.txt'
p1375
aS'movies-1-20180.txt'
p1376
aS'movies-1-20187.txt'
p1377
aS'movies-1-20189.txt'
p1378
aS'movies-1-20190.txt'
p1379
aS'movies-1-20198.txt'
p1380
aS'movies-1-20200.txt'
p1381
aS'movies-1-20203.txt'
p1382
aS'movies-1-20204.txt'
p1383
aS'movies-1-20205.txt'
p1384
aS'movies-1-20208.txt'
p1385
aS'movies-1-20209.txt'
p1386
aS'movies-1-20211.txt'
p1387
aS'movies-1-20214.txt'
p1388
aS'movies-1-20216.txt'
p1389
aS'movies-1-20217.txt'
p1390
aS'movies-1-20232.txt'
p1391
aS'movies-1-20236.txt'
p1392
aS'movies-1-20238.txt'
p1393
aS'movies-1-20241.txt'
p1394
aS'movies-1-20244.txt'
p1395
aS'movies-1-20245.txt'
p1396
aS'movies-1-20252.txt'
p1397
aS'movies-1-20253.txt'
p1398
aS'movies-1-20259.txt'
p1399
aS'movies-1-20263.txt'
p1400
aS'movies-1-20264.txt'
p1401
aS'movies-1-20266.txt'
p1402
aS'movies-1-20267.txt'
p1403
aS'movies-1-20274.txt'
p1404
aS'movies-1-20276.txt'
p1405
aS'movies-1-20281.txt'
p1406
aS'movies-1-20283.txt'
p1407
aS'movies-1-20284.txt'
p1408
aS'movies-1-20289.txt'
p1409
aS'movies-1-2029.txt'
p1410
aS'movies-1-20291.txt'
p1411
aS'movies-1-20294.txt'
p1412
aS'movies-1-20302.txt'
p1413
aS'movies-1-20305.txt'
p1414
aS'movies-1-20307.txt'
p1415
aS'movies-1-20308.txt'
p1416
aS'movies-1-20309.txt'
p1417
aS'movies-1-20310.txt'
p1418
aS'movies-1-20312.txt'
p1419
aS'movies-1-20314.txt'
p1420
aS'movies-1-20315.txt'
p1421
aS'movies-1-20316.txt'
p1422
aS'movies-1-20319.txt'
p1423
aS'movies-1-2032.txt'
p1424
aS'movies-1-20320.txt'
p1425
aS'movies-1-20322.txt'
p1426
aS'movies-1-20323.txt'
p1427
aS'movies-1-20325.txt'
p1428
aS'movies-1-20332.txt'
p1429
aS'movies-1-20333.txt'
p1430
aS'movies-1-20334.txt'
p1431
aS'movies-1-20335.txt'
p1432
aS'movies-1-20336.txt'
p1433
aS'movies-1-20337.txt'
p1434
aS'movies-1-20338.txt'
p1435
aS'movies-1-20339.txt'
p1436
aS'movies-1-20340.txt'
p1437
aS'movies-1-20341.txt'
p1438
aS'movies-1-20342.txt'
p1439
aS'movies-1-20345.txt'
p1440
aS'movies-1-20350.txt'
p1441
aS'movies-1-20352.txt'
p1442
aS'movies-1-20355.txt'
p1443
aS'movies-1-20356.txt'
p1444
aS'movies-1-20360.txt'
p1445
aS'movies-1-20362.txt'
p1446
aS'movies-1-20365.txt'
p1447
aS'movies-1-20368.txt'
p1448
aS'movies-1-20369.txt'
p1449
aS'movies-1-20373.txt'
p1450
aS'movies-1-20375.txt'
p1451
aS'movies-1-20380.txt'
p1452
aS'movies-1-20383.txt'
p1453
aS'movies-1-20384.txt'
p1454
aS'movies-1-20385.txt'
p1455
aS'movies-1-20386.txt'
p1456
aS'movies-1-20388.txt'
p1457
aS'movies-1-20390.txt'
p1458
aS'movies-1-20391.txt'
p1459
aS'movies-1-20392.txt'
p1460
aS'movies-1-20394.txt'
p1461
aS'movies-1-20396.txt'
p1462
aS'movies-1-20397.txt'
p1463
aS'movies-1-20399.txt'
p1464
aS'movies-1-20400.txt'
p1465
aS'movies-1-20401.txt'
p1466
aS'movies-1-20402.txt'
p1467
aS'movies-1-20404.txt'
p1468
aS'movies-1-20405.txt'
p1469
aS'movies-1-20406.txt'
p1470
aS'movies-1-20407.txt'
p1471
aS'movies-1-20409.txt'
p1472
aS'movies-1-20411.txt'
p1473
aS'movies-1-20412.txt'
p1474
aS'movies-1-20414.txt'
p1475
aS'movies-1-20416.txt'
p1476
aS'movies-1-20417.txt'
p1477
aS'movies-1-20418.txt'
p1478
aS'movies-1-20419.txt'
p1479
aS'movies-1-20421.txt'
p1480
aS'movies-1-20429.txt'
p1481
aS'movies-1-20430.txt'
p1482
aS'movies-1-20435.txt'
p1483
aS'movies-1-20436.txt'
p1484
aS'movies-1-20437.txt'
p1485
aS'movies-1-20438.txt'
p1486
aS'movies-1-20439.txt'
p1487
aS'movies-1-2044.txt'
p1488
aS'movies-1-20440.txt'
p1489
aS'movies-1-20445.txt'
p1490
aS'movies-1-20446.txt'
p1491
aS'movies-1-20448.txt'
p1492
aS'movies-1-20449.txt'
p1493
aS'movies-1-20480.txt'
p1494
aS'movies-1-20514.txt'
p1495
aS'movies-1-20523.txt'
p1496
aS'movies-1-20529.txt'
p1497
aS'movies-1-2054.txt'
p1498
aS'movies-1-20540.txt'
p1499
aS'movies-1-20546.txt'
p1500
aS'movies-1-20549.txt'
p1501
aS'movies-1-20553.txt'
p1502
aS'movies-1-20554.txt'
p1503
aS'movies-1-20555.txt'
p1504
aS'movies-1-20570.txt'
p1505
aS'movies-1-20593.txt'
p1506
aS'movies-1-20609.txt'
p1507
aS'movies-1-20610.txt'
p1508
aS'movies-1-20613.txt'
p1509
aS'movies-1-20620.txt'
p1510
aS'movies-1-20661.txt'
p1511
aS'movies-1-20669.txt'
p1512
aS'movies-1-2067.txt'
p1513
aS'movies-1-20682.txt'
p1514
aS'movies-1-20684.txt'
p1515
aS'movies-1-20690.txt'
p1516
aS'movies-1-2072.txt'
p1517
aS'movies-1-20720.txt'
p1518
aS'movies-1-20777.txt'
p1519
aS'movies-1-2080.txt'
p1520
aS'movies-1-20802.txt'
p1521
aS'movies-1-20803.txt'
p1522
aS'movies-1-20805.txt'
p1523
aS'movies-1-20807.txt'
p1524
aS'movies-1-20808.txt'
p1525
aS'movies-1-20814.txt'
p1526
aS'movies-1-20821.txt'
p1527
aS'movies-1-20822.txt'
p1528
aS'movies-1-20823.txt'
p1529
aS'movies-1-20833.txt'
p1530
aS'movies-1-2085.txt'
p1531
aS'movies-1-20862.txt'
p1532
aS'movies-1-20863.txt'
p1533
aS'movies-1-20864.txt'
p1534
aS'movies-1-20873.txt'
p1535
aS'movies-1-2090.txt'
p1536
aS'movies-1-2092.txt'
p1537
aS'movies-1-20921.txt'
p1538
aS'movies-1-20924.txt'
p1539
aS'movies-1-20925.txt'
p1540
aS'movies-1-20946.txt'
p1541
aS'movies-1-20954.txt'
p1542
aS'movies-1-20956.txt'
p1543
aS'movies-1-20967.txt'
p1544
aS'movies-1-20968.txt'
p1545
aS'movies-1-20986.txt'
p1546
aS'movies-1-21026.txt'
p1547
aS'movies-1-21027.txt'
p1548
aS'movies-1-21032.txt'
p1549
aS'movies-1-21058.txt'
p1550
aS'movies-1-21077.txt'
p1551
aS'movies-1-21086.txt'
p1552
aS'movies-1-21087.txt'
p1553
aS'movies-1-21089.txt'
p1554
aS'movies-1-21094.txt'
p1555
aS'movies-1-21096.txt'
p1556
aS'movies-1-21109.txt'
p1557
aS'movies-1-21118.txt'
p1558
aS'movies-1-21120.txt'
p1559
aS'movies-1-21131.txt'
p1560
aS'movies-1-21132.txt'
p1561
aS'movies-1-21159.txt'
p1562
aS'movies-1-21175.txt'
p1563
aS'movies-1-21180.txt'
p1564
aS'movies-1-21211.txt'
p1565
aS'movies-1-21218.txt'
p1566
aS'movies-1-21226.txt'
p1567
aS'movies-1-21233.txt'
p1568
aS'movies-1-21245.txt'
p1569
aS'movies-1-21250.txt'
p1570
aS'movies-1-21254.txt'
p1571
aS'movies-1-21255.txt'
p1572
aS'movies-1-2126.txt'
p1573
aS'movies-1-21264.txt'
p1574
aS'movies-1-21265.txt'
p1575
aS'movies-1-21271.txt'
p1576
aS'movies-1-21283.txt'
p1577
aS'movies-1-21310.txt'
p1578
aS'movies-1-21311.txt'
p1579
aS'movies-1-21312.txt'
p1580
aS'movies-1-21314.txt'
p1581
aS'movies-1-21315.txt'
p1582
aS'movies-1-21316.txt'
p1583
aS'movies-1-21317.txt'
p1584
aS'movies-1-21332.txt'
p1585
aS'movies-1-21334.txt'
p1586
aS'movies-1-21338.txt'
p1587
aS'movies-1-21339.txt'
p1588
aS'movies-1-21340.txt'
p1589
aS'movies-1-21341.txt'
p1590
aS'movies-1-21346.txt'
p1591
aS'movies-1-21347.txt'
p1592
aS'movies-1-21348.txt'
p1593
aS'movies-1-21349.txt'
p1594
aS'movies-1-21351.txt'
p1595
aS'movies-1-21353.txt'
p1596
aS'movies-1-21354.txt'
p1597
aS'movies-1-21355.txt'
p1598
aS'movies-1-21356.txt'
p1599
aS'movies-1-21357.txt'
p1600
aS'movies-1-21358.txt'
p1601
aS'movies-1-2136.txt'
p1602
aS'movies-1-21382.txt'
p1603
aS'movies-1-21385.txt'
p1604
aS'movies-1-21386.txt'
p1605
aS'movies-1-21406.txt'
p1606
aS'movies-1-21432.txt'
p1607
aS'movies-1-21443.txt'
p1608
aS'movies-1-21446.txt'
p1609
aS'movies-1-21460.txt'
p1610
aS'movies-1-21471.txt'
p1611
aS'movies-1-21482.txt'
p1612
aS'movies-1-2149.txt'
p1613
aS'movies-1-21491.txt'
p1614
aS'movies-1-21514.txt'
p1615
aS'movies-1-21517.txt'
p1616
aS'movies-1-21523.txt'
p1617
aS'movies-1-21541.txt'
p1618
aS'movies-1-21557.txt'
p1619
aS'movies-1-21560.txt'
p1620
aS'movies-1-21568.txt'
p1621
aS'movies-1-216.txt'
p1622
aS'movies-1-21603.txt'
p1623
aS'movies-1-21608.txt'
p1624
aS'movies-1-2161.txt'
p1625
aS'movies-1-21612.txt'
p1626
aS'movies-1-21616.txt'
p1627
aS'movies-1-21683.txt'
p1628
aS'movies-1-21688.txt'
p1629
aS'movies-1-21705.txt'
p1630
aS'movies-1-21707.txt'
p1631
aS'movies-1-21740.txt'
p1632
aS'movies-1-21744.txt'
p1633
aS'movies-1-21786.txt'
p1634
aS'movies-1-21787.txt'
p1635
aS'movies-1-21792.txt'
p1636
aS'movies-1-21802.txt'
p1637
aS'movies-1-2181.txt'
p1638
aS'movies-1-21817.txt'
p1639
aS'movies-1-21829.txt'
p1640
aS'movies-1-21837.txt'
p1641
aS'movies-1-21908.txt'
p1642
aS'movies-1-21938.txt'
p1643
aS'movies-1-21952.txt'
p1644
aS'movies-1-2198.txt'
p1645
aS'movies-1-21988.txt'
p1646
aS'movies-1-21995.txt'
p1647
aS'movies-1-22004.txt'
p1648
aS'movies-1-22053.txt'
p1649
aS'movies-1-22089.txt'
p1650
aS'movies-1-22103.txt'
p1651
aS'movies-1-22109.txt'
p1652
aS'movies-1-22119.txt'
p1653
aS'movies-1-22120.txt'
p1654
aS'movies-1-2213.txt'
p1655
aS'movies-1-22148.txt'
p1656
aS'movies-1-2215.txt'
p1657
aS'movies-1-22170.txt'
p1658
aS'movies-1-222.txt'
p1659
aS'movies-1-2223.txt'
p1660
aS'movies-1-2226.txt'
p1661
aS'movies-1-2227.txt'
p1662
aS'movies-1-22329.txt'
p1663
aS'movies-1-22336.txt'
p1664
aS'movies-1-22337.txt'
p1665
aS'movies-1-22362.txt'
p1666
aS'movies-1-22371.txt'
p1667
aS'movies-1-22388.txt'
p1668
aS'movies-1-22389.txt'
p1669
aS'movies-1-22390.txt'
p1670
aS'movies-1-22396.txt'
p1671
aS'movies-1-22400.txt'
p1672
aS'movies-1-22408.txt'
p1673
aS'movies-1-22415.txt'
p1674
aS'movies-1-22461.txt'
p1675
aS'movies-1-22470.txt'
p1676
aS'movies-1-22481.txt'
p1677
aS'movies-1-22482.txt'
p1678
aS'movies-1-22537.txt'
p1679
aS'movies-1-22540.txt'
p1680
aS'movies-1-2255.txt'
p1681
aS'movies-1-22573.txt'
p1682
aS'movies-1-22577.txt'
p1683
aS'movies-1-22585.txt'
p1684
aS'movies-1-22591.txt'
p1685
aS'movies-1-22606.txt'
p1686
aS'movies-1-22614.txt'
p1687
aS'movies-1-22616.txt'
p1688
aS'movies-1-22629.txt'
p1689
aS'movies-1-22754.txt'
p1690
aS'movies-1-22793.txt'
p1691
aS'movies-1-22794.txt'
p1692
aS'movies-1-22795.txt'
p1693
aS'movies-1-22797.txt'
p1694
aS'movies-1-22803.txt'
p1695
aS'movies-1-22805.txt'
p1696
aS'movies-1-22806.txt'
p1697
aS'movies-1-22807.txt'
p1698
aS'movies-1-22810.txt'
p1699
aS'movies-1-22816.txt'
p1700
aS'movies-1-22823.txt'
p1701
aS'movies-1-22828.txt'
p1702
aS'movies-1-22841.txt'
p1703
aS'movies-1-22898.txt'
p1704
aS'movies-1-22920.txt'
p1705
aS'movies-1-22922.txt'
p1706
aS'movies-1-22923.txt'
p1707
aS'movies-1-22938.txt'
p1708
aS'movies-1-22957.txt'
p1709
aS'movies-1-22965.txt'
p1710
aS'movies-1-22973.txt'
p1711
aS'movies-1-22979.txt'
p1712
aS'movies-1-22988.txt'
p1713
aS'movies-1-22998.txt'
p1714
aS'movies-1-23011.txt'
p1715
aS'movies-1-23059.txt'
p1716
aS'movies-1-23060.txt'
p1717
aS'movies-1-23061.txt'
p1718
aS'movies-1-23065.txt'
p1719
aS'movies-1-23066.txt'
p1720
aS'movies-1-23067.txt'
p1721
aS'movies-1-23082.txt'
p1722
aS'movies-1-23085.txt'
p1723
aS'movies-1-23094.txt'
p1724
aS'movies-1-23112.txt'
p1725
aS'movies-1-23119.txt'
p1726
aS'movies-1-23164.txt'
p1727
aS'movies-1-23212.txt'
p1728
aS'movies-1-23215.txt'
p1729
aS'movies-1-23219.txt'
p1730
aS'movies-1-23222.txt'
p1731
aS'movies-1-23226.txt'
p1732
aS'movies-1-2323.txt'
p1733
aS'movies-1-23234.txt'
p1734
aS'movies-1-23236.txt'
p1735
aS'movies-1-23239.txt'
p1736
aS'movies-1-2326.txt'
p1737
aS'movies-1-23276.txt'
p1738
aS'movies-1-23283.txt'
p1739
aS'movies-1-2329.txt'
p1740
aS'movies-1-23296.txt'
p1741
aS'movies-1-23297.txt'
p1742
aS'movies-1-23304.txt'
p1743
aS'movies-1-23309.txt'
p1744
aS'movies-1-23311.txt'
p1745
aS'movies-1-23315.txt'
p1746
aS'movies-1-23320.txt'
p1747
aS'movies-1-2333.txt'
p1748
aS'movies-1-23330.txt'
p1749
aS'movies-1-23352.txt'
p1750
aS'movies-1-23370.txt'
p1751
aS'movies-1-23382.txt'
p1752
aS'movies-1-23385.txt'
p1753
aS'movies-1-23395.txt'
p1754
aS'movies-1-2340.txt'
p1755
aS'movies-1-23414.txt'
p1756
aS'movies-1-23417.txt'
p1757
aS'movies-1-23420.txt'
p1758
aS'movies-1-23436.txt'
p1759
aS'movies-1-23447.txt'
p1760
aS'movies-1-23448.txt'
p1761
aS'movies-1-23450.txt'
p1762
aS'movies-1-23453.txt'
p1763
aS'movies-1-23454.txt'
p1764
aS'movies-1-23456.txt'
p1765
aS'movies-1-23460.txt'
p1766
aS'movies-1-23462.txt'
p1767
aS'movies-1-23475.txt'
p1768
aS'movies-1-23483.txt'
p1769
aS'movies-1-2350.txt'
p1770
aS'movies-1-23514.txt'
p1771
aS'movies-1-23520.txt'
p1772
aS'movies-1-23542.txt'
p1773
aS'movies-1-2355.txt'
p1774
aS'movies-1-23581.txt'
p1775
aS'movies-1-23583.txt'
p1776
aS'movies-1-23595.txt'
p1777
aS'movies-1-23602.txt'
p1778
aS'movies-1-23603.txt'
p1779
aS'movies-1-23604.txt'
p1780
aS'movies-1-23619.txt'
p1781
aS'movies-1-23622.txt'
p1782
aS'movies-1-23636.txt'
p1783
aS'movies-1-23639.txt'
p1784
aS'movies-1-23645.txt'
p1785
aS'movies-1-23656.txt'
p1786
aS'movies-1-23661.txt'
p1787
aS'movies-1-23668.txt'
p1788
aS'movies-1-2368.txt'
p1789
aS'movies-1-23680.txt'
p1790
aS'movies-1-23686.txt'
p1791
aS'movies-1-23689.txt'
p1792
aS'movies-1-2369.txt'
p1793
aS'movies-1-23693.txt'
p1794
aS'movies-1-23721.txt'
p1795
aS'movies-1-23728.txt'
p1796
aS'movies-1-23737.txt'
p1797
aS'movies-1-23750.txt'
p1798
aS'movies-1-23753.txt'
p1799
aS'movies-1-23770.txt'
p1800
aS'movies-1-23772.txt'
p1801
aS'movies-1-23773.txt'
p1802
aS'movies-1-23778.txt'
p1803
aS'movies-1-23782.txt'
p1804
aS'movies-1-23783.txt'
p1805
aS'movies-1-2379.txt'
p1806
aS'movies-1-23791.txt'
p1807
aS'movies-1-23797.txt'
p1808
aS'movies-1-23804.txt'
p1809
aS'movies-1-23805.txt'
p1810
aS'movies-1-23815.txt'
p1811
aS'movies-1-23817.txt'
p1812
aS'movies-1-23820.txt'
p1813
aS'movies-1-23822.txt'
p1814
aS'movies-1-23850.txt'
p1815
aS'movies-1-23852.txt'
p1816
aS'movies-1-23861.txt'
p1817
aS'movies-1-2387.txt'
p1818
aS'movies-1-23873.txt'
p1819
aS'movies-1-23899.txt'
p1820
aS'movies-1-23910.txt'
p1821
aS'movies-1-23916.txt'
p1822
aS'movies-1-23922.txt'
p1823
aS'movies-1-23933.txt'
p1824
aS'movies-1-23937.txt'
p1825
aS'movies-1-23938.txt'
p1826
aS'movies-1-23954.txt'
p1827
aS'movies-1-23962.txt'
p1828
aS'movies-1-23963.txt'
p1829
aS'movies-1-23965.txt'
p1830
aS'movies-1-23969.txt'
p1831
aS'movies-1-23978.txt'
p1832
aS'movies-1-23988.txt'
p1833
aS'movies-1-23991.txt'
p1834
aS'movies-1-23992.txt'
p1835
aS'movies-1-23995.txt'
p1836
aS'movies-1-24011.txt'
p1837
aS'movies-1-24017.txt'
p1838
aS'movies-1-24028.txt'
p1839
aS'movies-1-24035.txt'
p1840
aS'movies-1-24042.txt'
p1841
aS'movies-1-24044.txt'
p1842
aS'movies-1-24053.txt'
p1843
aS'movies-1-24054.txt'
p1844
aS'movies-1-24060.txt'
p1845
aS'movies-1-24067.txt'
p1846
aS'movies-1-24068.txt'
p1847
aS'movies-1-24082.txt'
p1848
aS'movies-1-24091.txt'
p1849
aS'movies-1-24093.txt'
p1850
aS'movies-1-24104.txt'
p1851
aS'movies-1-24120.txt'
p1852
aS'movies-1-24121.txt'
p1853
aS'movies-1-24152.txt'
p1854
aS'movies-1-24159.txt'
p1855
aS'movies-1-24170.txt'
p1856
aS'movies-1-24171.txt'
p1857
aS'movies-1-24174.txt'
p1858
aS'movies-1-24179.txt'
p1859
aS'movies-1-24190.txt'
p1860
aS'movies-1-24192.txt'
p1861
aS'movies-1-24206.txt'
p1862
aS'movies-1-24209.txt'
p1863
aS'movies-1-24216.txt'
p1864
aS'movies-1-24217.txt'
p1865
aS'movies-1-24218.txt'
p1866
aS'movies-1-24229.txt'
p1867
aS'movies-1-24230.txt'
p1868
aS'movies-1-24243.txt'
p1869
aS'movies-1-24245.txt'
p1870
aS'movies-1-24260.txt'
p1871
aS'movies-1-24262.txt'
p1872
aS'movies-1-24269.txt'
p1873
aS'movies-1-24272.txt'
p1874
aS'movies-1-24274.txt'
p1875
aS'movies-1-24277.txt'
p1876
aS'movies-1-24284.txt'
p1877
aS'movies-1-24286.txt'
p1878
aS'movies-1-24288.txt'
p1879
aS'movies-1-24295.txt'
p1880
aS'movies-1-24298.txt'
p1881
aS'movies-1-24303.txt'
p1882
aS'movies-1-24308.txt'
p1883
aS'movies-1-24312.txt'
p1884
aS'movies-1-24313.txt'
p1885
aS'movies-1-24321.txt'
p1886
aS'movies-1-24322.txt'
p1887
aS'movies-1-24326.txt'
p1888
aS'movies-1-24332.txt'
p1889
aS'movies-1-24343.txt'
p1890
aS'movies-1-24347.txt'
p1891
aS'movies-1-24353.txt'
p1892
aS'movies-1-24367.txt'
p1893
aS'movies-1-24375.txt'
p1894
aS'movies-1-24378.txt'
p1895
aS'movies-1-24382.txt'
p1896
aS'movies-1-24383.txt'
p1897
aS'movies-1-24385.txt'
p1898
aS'movies-1-24388.txt'
p1899
aS'movies-1-24396.txt'
p1900
aS'movies-1-24397.txt'
p1901
aS'movies-1-24402.txt'
p1902
aS'movies-1-24421.txt'
p1903
aS'movies-1-24425.txt'
p1904
aS'movies-1-24429.txt'
p1905
aS'movies-1-24442.txt'
p1906
aS'movies-1-24452.txt'
p1907
aS'movies-1-24457.txt'
p1908
aS'movies-1-24462.txt'
p1909
aS'movies-1-24463.txt'
p1910
aS'movies-1-24476.txt'
p1911
aS'movies-1-24478.txt'
p1912
aS'movies-1-2448.txt'
p1913
aS'movies-1-24488.txt'
p1914
aS'movies-1-24493.txt'
p1915
aS'movies-1-24494.txt'
p1916
aS'movies-1-24503.txt'
p1917
aS'movies-1-24509.txt'
p1918
aS'movies-1-24515.txt'
p1919
aS'movies-1-24519.txt'
p1920
aS'movies-1-24520.txt'
p1921
aS'movies-1-24525.txt'
p1922
aS'movies-1-24536.txt'
p1923
aS'movies-1-24538.txt'
p1924
aS'movies-1-24540.txt'
p1925
aS'movies-1-24546.txt'
p1926
aS'movies-1-24547.txt'
p1927
aS'movies-1-24549.txt'
p1928
aS'movies-1-24551.txt'
p1929
aS'movies-1-24556.txt'
p1930
aS'movies-1-24558.txt'
p1931
aS'movies-1-24561.txt'
p1932
aS'movies-1-24563.txt'
p1933
aS'movies-1-24565.txt'
p1934
aS'movies-1-24566.txt'
p1935
aS'movies-1-24572.txt'
p1936
aS'movies-1-24574.txt'
p1937
aS'movies-1-24577.txt'
p1938
aS'movies-1-24579.txt'
p1939
aS'movies-1-24581.txt'
p1940
aS'movies-1-24588.txt'
p1941
aS'movies-1-24589.txt'
p1942
aS'movies-1-24590.txt'
p1943
aS'movies-1-24591.txt'
p1944
aS'movies-1-24592.txt'
p1945
aS'movies-1-24595.txt'
p1946
aS'movies-1-24598.txt'
p1947
aS'movies-1-24600.txt'
p1948
aS'movies-1-24602.txt'
p1949
aS'movies-1-24603.txt'
p1950
aS'movies-1-24606.txt'
p1951
aS'movies-1-24610.txt'
p1952
aS'movies-1-24611.txt'
p1953
aS'movies-1-24612.txt'
p1954
aS'movies-1-24623.txt'
p1955
aS'movies-1-24634.txt'
p1956
aS'movies-1-24636.txt'
p1957
aS'movies-1-24637.txt'
p1958
aS'movies-1-24638.txt'
p1959
aS'movies-1-24639.txt'
p1960
aS'movies-1-2464.txt'
p1961
aS'movies-1-24641.txt'
p1962
aS'movies-1-24648.txt'
p1963
aS'movies-1-24649.txt'
p1964
aS'movies-1-24658.txt'
p1965
aS'movies-1-24664.txt'
p1966
aS'movies-1-24667.txt'
p1967
aS'movies-1-24668.txt'
p1968
aS'movies-1-24669.txt'
p1969
aS'movies-1-24673.txt'
p1970
aS'movies-1-24674.txt'
p1971
aS'movies-1-24675.txt'
p1972
aS'movies-1-24677.txt'
p1973
aS'movies-1-24685.txt'
p1974
aS'movies-1-24687.txt'
p1975
aS'movies-1-24692.txt'
p1976
aS'movies-1-24697.txt'
p1977
aS'movies-1-24708.txt'
p1978
aS'movies-1-24709.txt'
p1979
aS'movies-1-2471.txt'
p1980
aS'movies-1-24710.txt'
p1981
aS'movies-1-24713.txt'
p1982
aS'movies-1-24716.txt'
p1983
aS'movies-1-24718.txt'
p1984
aS'movies-1-24721.txt'
p1985
aS'movies-1-24722.txt'
p1986
aS'movies-1-24723.txt'
p1987
aS'movies-1-24724.txt'
p1988
aS'movies-1-24730.txt'
p1989
aS'movies-1-24732.txt'
p1990
aS'movies-1-24734.txt'
p1991
aS'movies-1-24735.txt'
p1992
aS'movies-1-24738.txt'
p1993
aS'movies-1-24741.txt'
p1994
aS'movies-1-24742.txt'
p1995
aS'movies-1-24745.txt'
p1996
aS'movies-1-24748.txt'
p1997
aS'movies-1-24751.txt'
p1998
aS'movies-1-24753.txt'
p1999
aS'movies-1-24755.txt'
p2000
aS'movies-1-24761.txt'
p2001
aS'movies-1-24763.txt'
p2002
aS'movies-1-24767.txt'
p2003
aS'movies-1-24768.txt'
p2004
aS'movies-1-24769.txt'
p2005
aS'movies-1-24770.txt'
p2006
aS'movies-1-24771.txt'
p2007
aS'movies-1-24772.txt'
p2008
aS'movies-1-24776.txt'
p2009
aS'movies-1-24778.txt'
p2010
aS'movies-1-24779.txt'
p2011
aS'movies-1-24780.txt'
p2012
aS'movies-1-24790.txt'
p2013
aS'movies-1-24791.txt'
p2014
aS'movies-1-24792.txt'
p2015
aS'movies-1-24793.txt'
p2016
aS'movies-1-24794.txt'
p2017
aS'movies-1-24795.txt'
p2018
aS'movies-1-24796.txt'
p2019
aS'movies-1-24797.txt'
p2020
aS'movies-1-24805.txt'
p2021
aS'movies-1-24806.txt'
p2022
aS'movies-1-24807.txt'
p2023
aS'movies-1-24809.txt'
p2024
aS'movies-1-24811.txt'
p2025
aS'movies-1-24813.txt'
p2026
aS'movies-1-24814.txt'
p2027
aS'movies-1-24817.txt'
p2028
aS'movies-1-24818.txt'
p2029
aS'movies-1-24819.txt'
p2030
aS'movies-1-24821.txt'
p2031
aS'movies-1-24822.txt'
p2032
aS'movies-1-24825.txt'
p2033
aS'movies-1-24827.txt'
p2034
aS'movies-1-24831.txt'
p2035
aS'movies-1-24832.txt'
p2036
aS'movies-1-24833.txt'
p2037
aS'movies-1-24834.txt'
p2038
aS'movies-1-24835.txt'
p2039
aS'movies-1-24838.txt'
p2040
aS'movies-1-2496.txt'
p2041
aS'movies-1-2514.txt'
p2042
aS'movies-1-2544.txt'
p2043
aS'movies-1-2550.txt'
p2044
aS'movies-1-2554.txt'
p2045
aS'movies-1-2576.txt'
p2046
aS'movies-1-2583.txt'
p2047
aS'movies-1-2595.txt'
p2048
aS'movies-1-2618.txt'
p2049
aS'movies-1-2623.txt'
p2050
aS'movies-1-2635.txt'
p2051
aS'movies-1-2656.txt'
p2052
aS'movies-1-2660.txt'
p2053
aS'movies-1-2698.txt'
p2054
aS'movies-1-2719.txt'
p2055
aS'movies-1-2725.txt'
p2056
aS'movies-1-2726.txt'
p2057
aS'movies-1-2727.txt'
p2058
aS'movies-1-2729.txt'
p2059
aS'movies-1-2730.txt'
p2060
aS'movies-1-2731.txt'
p2061
aS'movies-1-2735.txt'
p2062
aS'movies-1-2736.txt'
p2063
aS'movies-1-2738.txt'
p2064
aS'movies-1-2745.txt'
p2065
aS'movies-1-2748.txt'
p2066
aS'movies-1-2749.txt'
p2067
aS'movies-1-2750.txt'
p2068
aS'movies-1-2755.txt'
p2069
aS'movies-1-2776.txt'
p2070
aS'movies-1-2823.txt'
p2071
aS'movies-1-2842.txt'
p2072
aS'movies-1-2846.txt'
p2073
aS'movies-1-2851.txt'
p2074
aS'movies-1-2853.txt'
p2075
aS'movies-1-286.txt'
p2076
aS'movies-1-2870.txt'
p2077
aS'movies-1-2872.txt'
p2078
aS'movies-1-2880.txt'
p2079
aS'movies-1-2881.txt'
p2080
aS'movies-1-2883.txt'
p2081
aS'movies-1-2896.txt'
p2082
aS'movies-1-2897.txt'
p2083
aS'movies-1-2905.txt'
p2084
aS'movies-1-2907.txt'
p2085
aS'movies-1-2909.txt'
p2086
aS'movies-1-2915.txt'
p2087
aS'movies-1-292.txt'
p2088
aS'movies-1-2936.txt'
p2089
aS'movies-1-2958.txt'
p2090
aS'movies-1-2959.txt'
p2091
aS'movies-1-2968.txt'
p2092
aS'movies-1-2972.txt'
p2093
aS'movies-1-2976.txt'
p2094
aS'movies-1-2978.txt'
p2095
aS'movies-1-2984.txt'
p2096
aS'movies-1-2985.txt'
p2097
aS'movies-1-2990.txt'
p2098
aS'movies-1-3030.txt'
p2099
aS'movies-1-3034.txt'
p2100
aS'movies-1-3067.txt'
p2101
aS'movies-1-3077.txt'
p2102
aS'movies-1-3090.txt'
p2103
aS'movies-1-3098.txt'
p2104
aS'movies-1-3104.txt'
p2105
aS'movies-1-3116.txt'
p2106
aS'movies-1-3118.txt'
p2107
aS'movies-1-3120.txt'
p2108
aS'movies-1-3122.txt'
p2109
aS'movies-1-3123.txt'
p2110
aS'movies-1-3130.txt'
p2111
aS'movies-1-3160.txt'
p2112
aS'movies-1-3161.txt'
p2113
aS'movies-1-3187.txt'
p2114
aS'movies-1-3191.txt'
p2115
aS'movies-1-3192.txt'
p2116
aS'movies-1-3196.txt'
p2117
aS'movies-1-32.txt'
p2118
aS'movies-1-320.txt'
p2119
aS'movies-1-3212.txt'
p2120
aS'movies-1-3216.txt'
p2121
aS'movies-1-3220.txt'
p2122
aS'movies-1-3224.txt'
p2123
aS'movies-1-3225.txt'
p2124
aS'movies-1-3230.txt'
p2125
aS'movies-1-3238.txt'
p2126
aS'movies-1-3241.txt'
p2127
aS'movies-1-3242.txt'
p2128
aS'movies-1-3244.txt'
p2129
aS'movies-1-3248.txt'
p2130
aS'movies-1-3257.txt'
p2131
aS'movies-1-3261.txt'
p2132
aS'movies-1-3262.txt'
p2133
aS'movies-1-3264.txt'
p2134
aS'movies-1-3271.txt'
p2135
aS'movies-1-3288.txt'
p2136
aS'movies-1-3292.txt'
p2137
aS'movies-1-3294.txt'
p2138
aS'movies-1-3310.txt'
p2139
aS'movies-1-3312.txt'
p2140
aS'movies-1-3326.txt'
p2141
aS'movies-1-3337.txt'
p2142
aS'movies-1-3338.txt'
p2143
aS'movies-1-3342.txt'
p2144
aS'movies-1-3344.txt'
p2145
aS'movies-1-3376.txt'
p2146
aS'movies-1-3380.txt'
p2147
aS'movies-1-339.txt'
p2148
aS'movies-1-3393.txt'
p2149
aS'movies-1-3395.txt'
p2150
aS'movies-1-3397.txt'
p2151
aS'movies-1-3398.txt'
p2152
aS'movies-1-3399.txt'
p2153
aS'movies-1-3403.txt'
p2154
aS'movies-1-3404.txt'
p2155
aS'movies-1-3407.txt'
p2156
aS'movies-1-3412.txt'
p2157
aS'movies-1-3415.txt'
p2158
aS'movies-1-3425.txt'
p2159
aS'movies-1-3430.txt'
p2160
aS'movies-1-3432.txt'
p2161
aS'movies-1-3433.txt'
p2162
aS'movies-1-3440.txt'
p2163
aS'movies-1-3448.txt'
p2164
aS'movies-1-3457.txt'
p2165
aS'movies-1-3471.txt'
p2166
aS'movies-1-3479.txt'
p2167
aS'movies-1-3489.txt'
p2168
aS'movies-1-3490.txt'
p2169
aS'movies-1-3491.txt'
p2170
aS'movies-1-3493.txt'
p2171
aS'movies-1-3494.txt'
p2172
aS'movies-1-3499.txt'
p2173
aS'movies-1-3502.txt'
p2174
aS'movies-1-3503.txt'
p2175
aS'movies-1-3513.txt'
p2176
aS'movies-1-3519.txt'
p2177
aS'movies-1-3521.txt'
p2178
aS'movies-1-3523.txt'
p2179
aS'movies-1-3532.txt'
p2180
aS'movies-1-3534.txt'
p2181
aS'movies-1-3535.txt'
p2182
aS'movies-1-3549.txt'
p2183
aS'movies-1-3578.txt'
p2184
aS'movies-1-3579.txt'
p2185
aS'movies-1-3581.txt'
p2186
aS'movies-1-3582.txt'
p2187
aS'movies-1-3585.txt'
p2188
aS'movies-1-3590.txt'
p2189
aS'movies-1-3591.txt'
p2190
aS'movies-1-3592.txt'
p2191
aS'movies-1-3599.txt'
p2192
aS'movies-1-360.txt'
p2193
aS'movies-1-3601.txt'
p2194
aS'movies-1-3608.txt'
p2195
aS'movies-1-3613.txt'
p2196
aS'movies-1-3615.txt'
p2197
aS'movies-1-3622.txt'
p2198
aS'movies-1-3623.txt'
p2199
aS'movies-1-3624.txt'
p2200
aS'movies-1-3636.txt'
p2201
aS'movies-1-3644.txt'
p2202
aS'movies-1-3649.txt'
p2203
aS'movies-1-3655.txt'
p2204
aS'movies-1-3661.txt'
p2205
aS'movies-1-3664.txt'
p2206
aS'movies-1-3666.txt'
p2207
aS'movies-1-3668.txt'
p2208
aS'movies-1-3671.txt'
p2209
aS'movies-1-3679.txt'
p2210
aS'movies-1-3680.txt'
p2211
aS'movies-1-3682.txt'
p2212
aS'movies-1-3687.txt'
p2213
aS'movies-1-3689.txt'
p2214
aS'movies-1-3691.txt'
p2215
aS'movies-1-3694.txt'
p2216
aS'movies-1-3695.txt'
p2217
aS'movies-1-3697.txt'
p2218
aS'movies-1-3698.txt'
p2219
aS'movies-1-3706.txt'
p2220
aS'movies-1-3712.txt'
p2221
aS'movies-1-3716.txt'
p2222
aS'movies-1-3722.txt'
p2223
aS'movies-1-3725.txt'
p2224
aS'movies-1-3726.txt'
p2225
aS'movies-1-3729.txt'
p2226
aS'movies-1-3738.txt'
p2227
aS'movies-1-3743.txt'
p2228
aS'movies-1-3744.txt'
p2229
aS'movies-1-3749.txt'
p2230
aS'movies-1-3757.txt'
p2231
aS'movies-1-3762.txt'
p2232
aS'movies-1-3764.txt'
p2233
aS'movies-1-3766.txt'
p2234
aS'movies-1-3767.txt'
p2235
aS'movies-1-3773.txt'
p2236
aS'movies-1-3776.txt'
p2237
aS'movies-1-3779.txt'
p2238
aS'movies-1-3780.txt'
p2239
aS'movies-1-3781.txt'
p2240
aS'movies-1-3782.txt'
p2241
aS'movies-1-3783.txt'
p2242
aS'movies-1-3784.txt'
p2243
aS'movies-1-3786.txt'
p2244
aS'movies-1-3787.txt'
p2245
aS'movies-1-3788.txt'
p2246
aS'movies-1-3791.txt'
p2247
aS'movies-1-3797.txt'
p2248
aS'movies-1-3805.txt'
p2249
aS'movies-1-3806.txt'
p2250
aS'movies-1-3810.txt'
p2251
aS'movies-1-3812.txt'
p2252
aS'movies-1-3813.txt'
p2253
aS'movies-1-3815.txt'
p2254
aS'movies-1-3816.txt'
p2255
aS'movies-1-3817.txt'
p2256
aS'movies-1-3818.txt'
p2257
aS'movies-1-3823.txt'
p2258
aS'movies-1-3824.txt'
p2259
aS'movies-1-3825.txt'
p2260
aS'movies-1-3827.txt'
p2261
aS'movies-1-3828.txt'
p2262
aS'movies-1-3830.txt'
p2263
aS'movies-1-3835.txt'
p2264
aS'movies-1-3836.txt'
p2265
aS'movies-1-3837.txt'
p2266
aS'movies-1-3839.txt'
p2267
aS'movies-1-3840.txt'
p2268
aS'movies-1-3841.txt'
p2269
aS'movies-1-3842.txt'
p2270
aS'movies-1-3843.txt'
p2271
aS'movies-1-3844.txt'
p2272
aS'movies-1-3845.txt'
p2273
aS'movies-1-3848.txt'
p2274
aS'movies-1-3849.txt'
p2275
aS'movies-1-3850.txt'
p2276
aS'movies-1-3851.txt'
p2277
aS'movies-1-3852.txt'
p2278
aS'movies-1-3856.txt'
p2279
aS'movies-1-3862.txt'
p2280
aS'movies-1-3864.txt'
p2281
aS'movies-1-3866.txt'
p2282
aS'movies-1-3884.txt'
p2283
aS'movies-1-3948.txt'
p2284
aS'movies-1-3956.txt'
p2285
aS'movies-1-3972.txt'
p2286
aS'movies-1-4070.txt'
p2287
aS'movies-1-4110.txt'
p2288
aS'movies-1-4208.txt'
p2289
aS'movies-1-4225.txt'
p2290
aS'movies-1-4268.txt'
p2291
aS'movies-1-4303.txt'
p2292
aS'movies-1-4314.txt'
p2293
aS'movies-1-4317.txt'
p2294
aS'movies-1-4330.txt'
p2295
aS'movies-1-4342.txt'
p2296
aS'movies-1-4385.txt'
p2297
aS'movies-1-4408.txt'
p2298
aS'movies-1-4420.txt'
p2299
aS'movies-1-4425.txt'
p2300
aS'movies-1-443.txt'
p2301
aS'movies-1-4450.txt'
p2302
aS'movies-1-4459.txt'
p2303
aS'movies-1-4483.txt'
p2304
aS'movies-1-4514.txt'
p2305
aS'movies-1-4537.txt'
p2306
aS'movies-1-4561.txt'
p2307
aS'movies-1-4570.txt'
p2308
aS'movies-1-4586.txt'
p2309
aS'movies-1-4598.txt'
p2310
aS'movies-1-461.txt'
p2311
aS'movies-1-4617.txt'
p2312
aS'movies-1-4618.txt'
p2313
aS'movies-1-4635.txt'
p2314
aS'movies-1-4641.txt'
p2315
aS'movies-1-4657.txt'
p2316
aS'movies-1-4670.txt'
p2317
aS'movies-1-4704.txt'
p2318
aS'movies-1-4715.txt'
p2319
aS'movies-1-4718.txt'
p2320
aS'movies-1-4738.txt'
p2321
aS'movies-1-4772.txt'
p2322
aS'movies-1-4779.txt'
p2323
aS'movies-1-4786.txt'
p2324
aS'movies-1-4796.txt'
p2325
aS'movies-1-4802.txt'
p2326
aS'movies-1-4812.txt'
p2327
aS'movies-1-4818.txt'
p2328
aS'movies-1-4828.txt'
p2329
aS'movies-1-4835.txt'
p2330
aS'movies-1-4836.txt'
p2331
aS'movies-1-4837.txt'
p2332
aS'movies-1-4848.txt'
p2333
aS'movies-1-4860.txt'
p2334
aS'movies-1-4871.txt'
p2335
aS'movies-1-4873.txt'
p2336
aS'movies-1-4888.txt'
p2337
aS'movies-1-4898.txt'
p2338
aS'movies-1-4911.txt'
p2339
aS'movies-1-4943.txt'
p2340
aS'movies-1-4950.txt'
p2341
aS'movies-1-4964.txt'
p2342
aS'movies-1-4968.txt'
p2343
aS'movies-1-4977.txt'
p2344
aS'movies-1-4983.txt'
p2345
aS'movies-1-4985.txt'
p2346
aS'movies-1-4989.txt'
p2347
aS'movies-1-4993.txt'
p2348
aS'movies-1-4996.txt'
p2349
aS'movies-1-5014.txt'
p2350
aS'movies-1-5029.txt'
p2351
aS'movies-1-5036.txt'
p2352
aS'movies-1-5039.txt'
p2353
aS'movies-1-5056.txt'
p2354
aS'movies-1-5057.txt'
p2355
aS'movies-1-5070.txt'
p2356
aS'movies-1-5077.txt'
p2357
aS'movies-1-5093.txt'
p2358
aS'movies-1-5097.txt'
p2359
aS'movies-1-5117.txt'
p2360
aS'movies-1-5127.txt'
p2361
aS'movies-1-5135.txt'
p2362
aS'movies-1-5136.txt'
p2363
aS'movies-1-5142.txt'
p2364
aS'movies-1-5148.txt'
p2365
aS'movies-1-5149.txt'
p2366
aS'movies-1-5154.txt'
p2367
aS'movies-1-5156.txt'
p2368
aS'movies-1-5166.txt'
p2369
aS'movies-1-5168.txt'
p2370
aS'movies-1-5170.txt'
p2371
aS'movies-1-5172.txt'
p2372
aS'movies-1-5173.txt'
p2373
aS'movies-1-5174.txt'
p2374
aS'movies-1-5176.txt'
p2375
aS'movies-1-5177.txt'
p2376
aS'movies-1-5182.txt'
p2377
aS'movies-1-5185.txt'
p2378
aS'movies-1-5188.txt'
p2379
aS'movies-1-5191.txt'
p2380
aS'movies-1-5193.txt'
p2381
aS'movies-1-5195.txt'
p2382
aS'movies-1-5199.txt'
p2383
aS'movies-1-5204.txt'
p2384
aS'movies-1-5206.txt'
p2385
aS'movies-1-5208.txt'
p2386
aS'movies-1-5210.txt'
p2387
aS'movies-1-5211.txt'
p2388
aS'movies-1-5215.txt'
p2389
aS'movies-1-5216.txt'
p2390
aS'movies-1-5218.txt'
p2391
aS'movies-1-5220.txt'
p2392
aS'movies-1-5221.txt'
p2393
aS'movies-1-5222.txt'
p2394
aS'movies-1-5223.txt'
p2395
aS'movies-1-5225.txt'
p2396
aS'movies-1-5266.txt'
p2397
aS'movies-1-5291.txt'
p2398
aS'movies-1-5295.txt'
p2399
aS'movies-1-5306.txt'
p2400
aS'movies-1-5320.txt'
p2401
aS'movies-1-5326.txt'
p2402
aS'movies-1-5329.txt'
p2403
aS'movies-1-5339.txt'
p2404
aS'movies-1-5345.txt'
p2405
aS'movies-1-5386.txt'
p2406
aS'movies-1-5390.txt'
p2407
aS'movies-1-5406.txt'
p2408
aS'movies-1-554.txt'
p2409
aS'movies-1-5544.txt'
p2410
aS'movies-1-5557.txt'
p2411
aS'movies-1-5592.txt'
p2412
aS'movies-1-5672.txt'
p2413
aS'movies-1-5675.txt'
p2414
aS'movies-1-5676.txt'
p2415
aS'movies-1-5677.txt'
p2416
aS'movies-1-5681.txt'
p2417
aS'movies-1-5698.txt'
p2418
aS'movies-1-570.txt'
p2419
aS'movies-1-5701.txt'
p2420
aS'movies-1-572.txt'
p2421
aS'movies-1-5762.txt'
p2422
aS'movies-1-5764.txt'
p2423
aS'movies-1-5788.txt'
p2424
aS'movies-1-5807.txt'
p2425
aS'movies-1-5812.txt'
p2426
aS'movies-1-5815.txt'
p2427
aS'movies-1-5829.txt'
p2428
aS'movies-1-5831.txt'
p2429
aS'movies-1-5849.txt'
p2430
aS'movies-1-6004.txt'
p2431
aS'movies-1-6019.txt'
p2432
aS'movies-1-6033.txt'
p2433
aS'movies-1-6055.txt'
p2434
aS'movies-1-6066.txt'
p2435
aS'movies-1-6105.txt'
p2436
aS'movies-1-6171.txt'
p2437
aS'movies-1-6179.txt'
p2438
aS'movies-1-6181.txt'
p2439
aS'movies-1-6189.txt'
p2440
aS'movies-1-6230.txt'
p2441
aS'movies-1-6231.txt'
p2442
aS'movies-1-6250.txt'
p2443
aS'movies-1-6293.txt'
p2444
aS'movies-1-6510.txt'
p2445
aS'movies-1-6558.txt'
p2446
aS'movies-1-6571.txt'
p2447
aS'movies-1-6609.txt'
p2448
aS'movies-1-6617.txt'
p2449
aS'movies-1-6622.txt'
p2450
aS'movies-1-6678.txt'
p2451
aS'movies-1-6706.txt'
p2452
aS'movies-1-6725.txt'
p2453
aS'movies-1-6762.txt'
p2454
aS'movies-1-6791.txt'
p2455
aS'movies-1-6792.txt'
p2456
aS'movies-1-6808.txt'
p2457
aS'movies-1-6830.txt'
p2458
aS'movies-1-6835.txt'
p2459
aS'movies-1-6837.txt'
p2460
aS'movies-1-6840.txt'
p2461
aS'movies-1-6882.txt'
p2462
aS'movies-1-6918.txt'
p2463
aS'movies-1-6922.txt'
p2464
aS'movies-1-701.txt'
p2465
aS'movies-1-7108.txt'
p2466
aS'movies-1-7124.txt'
p2467
aS'movies-1-7133.txt'
p2468
aS'movies-1-7160.txt'
p2469
aS'movies-1-7176.txt'
p2470
aS'movies-1-7201.txt'
p2471
aS'movies-1-7257.txt'
p2472
aS'movies-1-7258.txt'
p2473
aS'movies-1-7276.txt'
p2474
aS'movies-1-7279.txt'
p2475
aS'movies-1-7288.txt'
p2476
aS'movies-1-733.txt'
p2477
aS'movies-1-7340.txt'
p2478
aS'movies-1-7357.txt'
p2479
aS'movies-1-7365.txt'
p2480
aS'movies-1-7367.txt'
p2481
aS'movies-1-7370.txt'
p2482
aS'movies-1-7404.txt'
p2483
aS'movies-1-7431.txt'
p2484
aS'movies-1-7450.txt'
p2485
aS'movies-1-7452.txt'
p2486
aS'movies-1-7467.txt'
p2487
aS'movies-1-7493.txt'
p2488
aS'movies-1-7507.txt'
p2489
aS'movies-1-7521.txt'
p2490
aS'movies-1-7534.txt'
p2491
aS'movies-1-7551.txt'
p2492
aS'movies-1-7553.txt'
p2493
aS'movies-1-7560.txt'
p2494
aS'movies-1-7566.txt'
p2495
aS'movies-1-7607.txt'
p2496
aS'movies-1-761.txt'
p2497
aS'movies-1-7610.txt'
p2498
aS'movies-1-7620.txt'
p2499
aS'movies-1-7621.txt'
p2500
aS'movies-1-766.txt'
p2501
aS'movies-1-7662.txt'
p2502
aS'movies-1-7665.txt'
p2503
aS'movies-1-7669.txt'
p2504
aS'movies-1-7670.txt'
p2505
aS'movies-1-7671.txt'
p2506
aS'movies-1-7672.txt'
p2507
aS'movies-1-7674.txt'
p2508
aS'movies-1-768.txt'
p2509
aS'movies-1-7680.txt'
p2510
aS'movies-1-7683.txt'
p2511
aS'movies-1-7685.txt'
p2512
aS'movies-1-7688.txt'
p2513
aS'movies-1-7693.txt'
p2514
aS'movies-1-7696.txt'
p2515
aS'movies-1-7699.txt'
p2516
aS'movies-1-7704.txt'
p2517
aS'movies-1-7706.txt'
p2518
aS'movies-1-7713.txt'
p2519
aS'movies-1-772.txt'
p2520
aS'movies-1-7729.txt'
p2521
aS'movies-1-7739.txt'
p2522
aS'movies-1-7741.txt'
p2523
aS'movies-1-7743.txt'
p2524
aS'movies-1-7746.txt'
p2525
aS'movies-1-7763.txt'
p2526
aS'movies-1-7777.txt'
p2527
aS'movies-1-778.txt'
p2528
aS'movies-1-7784.txt'
p2529
aS'movies-1-779.txt'
p2530
aS'movies-1-7801.txt'
p2531
aS'movies-1-7817.txt'
p2532
aS'movies-1-7826.txt'
p2533
aS'movies-1-7837.txt'
p2534
aS'movies-1-7839.txt'
p2535
aS'movies-1-7840.txt'
p2536
aS'movies-1-7856.txt'
p2537
aS'movies-1-7859.txt'
p2538
aS'movies-1-7872.txt'
p2539
aS'movies-1-7896.txt'
p2540
aS'movies-1-7909.txt'
p2541
aS'movies-1-8007.txt'
p2542
aS'movies-1-8016.txt'
p2543
aS'movies-1-8026.txt'
p2544
aS'movies-1-8039.txt'
p2545
aS'movies-1-8046.txt'
p2546
aS'movies-1-8052.txt'
p2547
aS'movies-1-8087.txt'
p2548
aS'movies-1-8095.txt'
p2549
aS'movies-1-8101.txt'
p2550
aS'movies-1-8102.txt'
p2551
aS'movies-1-8116.txt'
p2552
aS'movies-1-8141.txt'
p2553
aS'movies-1-8146.txt'
p2554
aS'movies-1-8154.txt'
p2555
aS'movies-1-820.txt'
p2556
aS'movies-1-8200.txt'
p2557
aS'movies-1-8203.txt'
p2558
aS'movies-1-8205.txt'
p2559
aS'movies-1-8206.txt'
p2560
aS'movies-1-8217.txt'
p2561
aS'movies-1-8230.txt'
p2562
aS'movies-1-8235.txt'
p2563
aS'movies-1-8241.txt'
p2564
aS'movies-1-8266.txt'
p2565
aS'movies-1-827.txt'
p2566
aS'movies-1-8270.txt'
p2567
aS'movies-1-8298.txt'
p2568
aS'movies-1-8301.txt'
p2569
aS'movies-1-8303.txt'
p2570
aS'movies-1-831.txt'
p2571
aS'movies-1-8312.txt'
p2572
aS'movies-1-8319.txt'
p2573
aS'movies-1-833.txt'
p2574
aS'movies-1-8340.txt'
p2575
aS'movies-1-8383.txt'
p2576
aS'movies-1-842.txt'
p2577
aS'movies-1-8426.txt'
p2578
aS'movies-1-8431.txt'
p2579
aS'movies-1-8433.txt'
p2580
aS'movies-1-8439.txt'
p2581
aS'movies-1-8444.txt'
p2582
aS'movies-1-8445.txt'
p2583
aS'movies-1-8446.txt'
p2584
aS'movies-1-8450.txt'
p2585
aS'movies-1-8451.txt'
p2586
aS'movies-1-8462.txt'
p2587
aS'movies-1-8487.txt'
p2588
aS'movies-1-8497.txt'
p2589
aS'movies-1-8498.txt'
p2590
aS'movies-1-8499.txt'
p2591
aS'movies-1-8506.txt'
p2592
aS'movies-1-8517.txt'
p2593
aS'movies-1-8518.txt'
p2594
aS'movies-1-8538.txt'
p2595
aS'movies-1-8574.txt'
p2596
aS'movies-1-8575.txt'
p2597
aS'movies-1-8589.txt'
p2598
aS'movies-1-8594.txt'
p2599
aS'movies-1-8618.txt'
p2600
aS'movies-1-8626.txt'
p2601
aS'movies-1-8630.txt'
p2602
aS'movies-1-8644.txt'
p2603
aS'movies-1-8645.txt'
p2604
aS'movies-1-8665.txt'
p2605
aS'movies-1-8673.txt'
p2606
aS'movies-1-8679.txt'
p2607
aS'movies-1-8682.txt'
p2608
aS'movies-1-8725.txt'
p2609
aS'movies-1-8726.txt'
p2610
aS'movies-1-8727.txt'
p2611
aS'movies-1-8731.txt'
p2612
aS'movies-1-8740.txt'
p2613
aS'movies-1-8754.txt'
p2614
aS'movies-1-8775.txt'
p2615
aS'movies-1-8781.txt'
p2616
aS'movies-1-8783.txt'
p2617
aS'movies-1-8784.txt'
p2618
aS'movies-1-8796.txt'
p2619
aS'movies-1-8808.txt'
p2620
aS'movies-1-8809.txt'
p2621
aS'movies-1-8811.txt'
p2622
aS'movies-1-8829.txt'
p2623
aS'movies-1-8847.txt'
p2624
aS'movies-1-8875.txt'
p2625
aS'movies-1-8878.txt'
p2626
aS'movies-1-891.txt'
p2627
aS'movies-1-8913.txt'
p2628
aS'movies-1-8915.txt'
p2629
aS'movies-1-8931.txt'
p2630
aS'movies-1-8959.txt'
p2631
aS'movies-1-8962.txt'
p2632
aS'movies-1-8981.txt'
p2633
aS'movies-1-8983.txt'
p2634
aS'movies-1-8995.txt'
p2635
aS'movies-1-9007.txt'
p2636
aS'movies-1-9043.txt'
p2637
aS'movies-1-9052.txt'
p2638
aS'movies-1-9063.txt'
p2639
aS'movies-1-9076.txt'
p2640
aS'movies-1-9077.txt'
p2641
aS'movies-1-9082.txt'
p2642
aS'movies-1-9085.txt'
p2643
aS'movies-1-9088.txt'
p2644
aS'movies-1-9093.txt'
p2645
aS'movies-1-9097.txt'
p2646
aS'movies-1-9113.txt'
p2647
aS'movies-1-9139.txt'
p2648
aS'movies-1-914.txt'
p2649
aS'movies-1-9140.txt'
p2650
aS'movies-1-9142.txt'
p2651
aS'movies-1-9153.txt'
p2652
aS'movies-1-9157.txt'
p2653
aS'movies-1-9158.txt'
p2654
aS'movies-1-9162.txt'
p2655
aS'movies-1-9163.txt'
p2656
aS'movies-1-9169.txt'
p2657
aS'movies-1-9172.txt'
p2658
aS'movies-1-9207.txt'
p2659
aS'movies-1-9209.txt'
p2660
aS'movies-1-9216.txt'
p2661
aS'movies-1-9229.txt'
p2662
aS'movies-1-927.txt'
p2663
aS'movies-1-9292.txt'
p2664
aS'movies-1-93.txt'
p2665
aS'movies-1-9304.txt'
p2666
aS'movies-1-9333.txt'
p2667
aS'movies-1-9346.txt'
p2668
aS'movies-1-9347.txt'
p2669
aS'movies-1-9348.txt'
p2670
aS'movies-1-9356.txt'
p2671
aS'movies-1-9387.txt'
p2672
aS'movies-1-9391.txt'
p2673
aS'movies-1-9393.txt'
p2674
aS'movies-1-9396.txt'
p2675
aS'movies-1-9412.txt'
p2676
aS'movies-1-9454.txt'
p2677
aS'movies-1-9457.txt'
p2678
aS'movies-1-9494.txt'
p2679
aS'movies-1-9499.txt'
p2680
aS'movies-1-9504.txt'
p2681
aS'movies-1-9509.txt'
p2682
aS'movies-1-9511.txt'
p2683
aS'movies-1-9512.txt'
p2684
aS'movies-1-9527.txt'
p2685
aS'movies-1-9528.txt'
p2686
aS'movies-1-9566.txt'
p2687
aS'movies-1-9572.txt'
p2688
aS'movies-1-9573.txt'
p2689
aS'movies-1-9607.txt'
p2690
aS'movies-1-9616.txt'
p2691
aS'movies-1-9617.txt'
p2692
aS'movies-1-9633.txt'
p2693
aS'movies-1-9642.txt'
p2694
aS'movies-1-9646.txt'
p2695
aS'movies-1-9650.txt'
p2696
aS'movies-1-9653.txt'
p2697
aS'movies-1-966.txt'
p2698
aS'movies-1-9669.txt'
p2699
aS'movies-1-967.txt'
p2700
aS'movies-1-9670.txt'
p2701
aS'movies-1-9682.txt'
p2702
aS'movies-1-9683.txt'
p2703
aS'movies-1-9688.txt'
p2704
aS'movies-1-9706.txt'
p2705
aS'movies-1-9715.txt'
p2706
aS'movies-1-9719.txt'
p2707
aS'movies-1-9736.txt'
p2708
aS'movies-1-9758.txt'
p2709
aS'movies-1-9772.txt'
p2710
aS'movies-1-9773.txt'
p2711
aS'movies-1-9804.txt'
p2712
aS'movies-1-9808.txt'
p2713
aS'movies-1-981.txt'
p2714
aS'movies-1-9821.txt'
p2715
aS'movies-1-9828.txt'
p2716
aS'movies-1-9838.txt'
p2717
aS'movies-1-9851.txt'
p2718
aS'movies-1-9854.txt'
p2719
aS'movies-1-9855.txt'
p2720
aS'movies-1-9860.txt'
p2721
aS'movies-1-9861.txt'
p2722
aS'movies-1-9867.txt'
p2723
aS'movies-1-9869.txt'
p2724
aS'movies-1-9874.txt'
p2725
aS'movies-1-9892.txt'
p2726
aS'movies-1-9896.txt'
p2727
aS'movies-1-9912.txt'
p2728
aS'movies-1-9941.txt'
p2729
aS'movies-1-9943.txt'
p2730
aS'movies-1-9945.txt'
p2731
aS'movies-1-9948.txt'
p2732
aS'movies-1-9952.txt'
p2733
aS'movies-1-9958.txt'
p2734
aS'movies-1-9987.txt'
p2735
a.